-----BEGIN PRIVATE KEY-----
MIIEvgIBADANBgkqhkiG9w0BAQEFAASCBKgwggSkAgEAAoIBAQDF+7hf6dwP/V2K
HevGuQ15WyEI9FqbHgOGKEtaB9BUORyRM24ITXA3qPxPW59kwSCZA4pNmLhV9lRR
hbFEGxWBaLOSUupvX8p3hHlQX+rv5lXN4UHn95nTAwhGBkRZsDcNSvkeuTdXYQlD
AvmUYPuXMAsMLobPAYbAawOZgHjccUZ2+wGXPxzyH+rURl36y7PgeJPVdPvIRhEe
9+BimC2Fh2QMQYxHGueP8CZ/124R5d3gteWxImP5yp1JXg0AjiKdrstahXxBcI4W
NCDtSxauyloK8msitSOMr3MLyN8Q60PLdBsQcv7cfyeVaa2hGPWzEGyv+Bh/hNcm
H6kZLMmLAgMBAAECggEAJXjDKMQmdpBJx/5pxa74seNhmURGcd14ZUfzGxMnhwlY
MtM9HC0r9BzzxEFfJb634L4eyxkAqqR4yQU4y98kbt3WPveaj4Hd3EkifOfqm4VI
8DKWOsVOQ/Xq9vXwsdj8UnPCOuJrawpeqmRBwKeqdq8NKD0WHs/3JSwb/k2mknI4
zE5w9E5p9+/F3G9LUn+t411zRKm30BfRI+G7kzB+fgK4pTI4yaYa6l+ZJUKoxzcY
JKMODD9y8bPaQc3VIGqZd53AtjmK6nSjkmBnVzxFmrKJxJObemxuoHJ2fkZNolB0
vZj42A0i0vN3clR4ULDUX1VQe2D4ugJJ/LfFnJimQQKBgQDqxBshBQsIg5/OC3as
u4zQR4sGmPMzH6en3ag0yOSxTSyH79lZb9Vq7BFX8kBMsXCdaQgj/ntmByCBlyU9
tP0VtMB88VhmsXhV+CA/TGkrnIh1r5gj5tkJ8jnNBDvgtImZGC1WikHL8E/CoqOn
TXLLJN15YlslUpVtaTSGSQdSKQKBgQDX4+1j25tj9xdll8AYPMomUhw5Efim21CJ
ijrLnMESarAVUpX5ojZJCLMQKnJvL8D3k+3DXQNN1iApSI0Jcwh3m0N+ybfAXd5W
hIcXYOk/i5vdxVLY5lXtlXvcqj+PUB7RSw7UBfHnOAFHmsXOFWE2MTVZKRgeSi39
My6d+d88kwKBgQDAbK7j2LNbbi+M/j5uhGd9zDY62SD19WtBH2Cgq00vulbWsRRQ
x2aBdi8dC9YCRqpMi2t9vTe9v/e34IBI3NFYekgP4O4ZdjtxE6iy2VmWwn3jIGMu
gifBjEYuMds2aiQiVPvMZBRcKYPmv9It7kA6G+RgeurEY7VQ8Zt4ueEDSQKBgQCj
b+vxYvl6bj8KLB3Cu5KV/CddlRtWxkVsOndUWbFYjegL3F+pgoHyPGHC5T+IqPA+
/YBMHAg6TtY+KqyK8MkCM0qfm3o+aVG+0cmrizRJZRl0hMO5bHa0zCve3AwOJKuP
6nCpVm7RinZ9jNAeudTEP/CRNSkLFUFHpA2wjs/PfQKBgA7pP6k4d/KrCAsA0VcL
yjjNZK/GS+FCA6nA6Dgf7EEWINYwaWWMU8EqmYRN808zmRF8c6+u4ssT7aMNpNru
nfELb9FbmtQTYI7aF6liwQEtQnVH5jfLFlGh324aP/kTm+XOkAt6MS0YmY4RoyPm
xxpnbjWiQcnGCHe63dS8r2t/
-----END PRIVATE KEY-----
Certificate:
    Data:
        Version: 3 (0x2)
        Serial Number: 3 (0x3)
        Signature Algorithm: sha256WithRSAEncryption
        Issuer: CN=Kernel Test CA, OU=Kernel, O=MongoDB, L=New York City, ST=New York, C=US
        Validity
            Not Before: May 13 14:45:18 2019 GMT
            Not After : May 10 14:45:18 2029 GMT
        Subject: C=US, ST=New York, L=New York City, O=MongoDB, OU=Kernel, CN=127.0.0.1
        Subject Public Key Info:
            Public Key Algorithm: rsaEncryption
                RSA Public-Key: (2048 bit)
                Modulus:
                    00:c5:fb:b8:5f:e9:dc:0f:fd:5d:8a:1d:eb:c6:b9:
                    0d:79:5b:21:08:f4:5a:9b:1e:03:86:28:4b:5a:07:
                    d0:54:39:1c:91:33:6e:08:4d:70:37:a8:fc:4f:5b:
                    9f:64:c1:20:99:03:8a:4d:98:b8:55:f6:54:51:85:
                    b1:44:1b:15:81:68:b3:92:52:ea:6f:5f:ca:77:84:
                    79:50:5f:ea:ef:e6:55:cd:e1:41:e7:f7:99:d3:03:
                    08:46:06:44:59:b0:37:0d:4a:f9:1e:b9:37:57:61:
                    09:43:02:f9:94:60:fb:97:30:0b:0c:2e:86:cf:01:
                    86:c0:6b:03:99:80:78:dc:71:46:76:fb:01:97:3f:
                    1c:f2:1f:ea:d4:46:5d:fa:cb:b3:e0:78:93:d5:74:
                    fb:c8:46:11:1e:f7:e0:62:98:2d:85:87:64:0c:41:
                    8c:47:1a:e7:8f:f0:26:7f:d7:6e:11:e5:dd:e0:b5:
                    e5:b1:22:63:f9:ca:9d:49:5e:0d:00:8e:22:9d:ae:
                    cb:5a:85:7c:41:70:8e:16:34:20:ed:4b:16:ae:ca:
                    5a:0a:f2:6b:22:b5:23:8c:af:73:0b:c8:df:10:eb:
                    43:cb:74:1b:10:72:fe:dc:7f:27:95:69:ad:a1:18:
                    f5:b3:10:6c:af:f8:18:7f:84:d7:26:1f:a9:19:2c:
                    c9:8b
                Exponent: 65537 (0x10001)
        X509v3 extensions:
            X509v3 Basic Constraints: 
                CA:FALSE
            X509v3 Subject Alternative Name: 
                DNS:badSAN
            X509v3 Subject Key Identifier: 
                4F:2B:89:C6:AF:A0:C2:D2:D5:FC:C4:B9:5A:57:19:82:DE:95:F4:A5
            X509v3 Key Usage: 
                Digital Signature, Key Encipherment
            X509v3 Extended Key Usage: 
                TLS Web Server Authentication
    Signature Algorithm: sha256WithRSAEncryption
         5a:20:97:d9:c9:67:77:73:13:0b:da:5f:03:45:2b:33:7a:03:
         19:67:b8:f4:4c:90:85:f9:19:c3:53:6a:3e:b0:9c:07:6c:f7:
         09:69:20:dc:c7:ab:53:01:1a:c1:36:5f:02:39:9a:59:43:43:
         3b:82:49:95:9e:3f:cb:70:08:4f:3b:f7:89:20:24:3a:87:20:
         19:2c:9f:21:5b:c7:c3:ac:21:2f:2d:58:5d:25:50:04:fe:f8:
         ca:d7:bf:1e:dd:5d:46:3a:db:36:e4:8f:7b:d2:7e:24:35:c5:
         fd:9d:be:87:85:3e:0f:34:b5:13:63:99:80:1c:a4:50:1d:5e:
         f8:ff:88:da:c5:12:20:28:94:dc:1f:0b:c6:e6:55:b0:66:d4:
         19:0b:f0:d3:c0:69:11:85:18:6d:4e:98:1d:37:87:fb:68:90:
         a0:bb:02:fc:68:da:6c:a0:87:a4:bc:27:6e:f0:a7:7b:98:7f:
         63:ec:38:56:42:8f:92:06:bd:3f:70:87:db:9c:2d:31:56:52:
         10:81:e2:25:b1:53:96:ed:df:12:5b:80:a6:59:f7:4f:86:7d:
         5c:6e:2f:37:78:f5:45:a4:3e:07:87:5b:3a:4a:57:82:9e:b3:
         1a:be:54:28:17:98:b8:9f:35:10:d8:71:77:70:59:17:3f:f4:
         30:c8:f9:8b
-----BEGIN CERTIFICATE-----
MIIDvzCCAqegAwIBAgIBAzANBgkqhkiG9w0BAQsFADB0MRcwFQYDVQQDEw5LZXJu
ZWwgVGVzdCBDQTEPMA0GA1UECxMGS2VybmVsMRAwDgYDVQQKEwdNb25nb0RCMRYw
FAYDVQQHEw1OZXcgWW9yayBDaXR5MREwDwYDVQQIEwhOZXcgWW9yazELMAkGA1UE
BhMCVVMwHhcNMTkwNTEzMTQ0NTE4WhcNMjkwNTEwMTQ0NTE4WjBvMQswCQYDVQQG
EwJVUzERMA8GA1UECAwITmV3IFlvcmsxFjAUBgNVBAcMDU5ldyBZb3JrIENpdHkx
EDAOBgNVBAoMB01vbmdvREIxDzANBgNVBAsMBktlcm5lbDESMBAGA1UEAwwJMTI3
LjAuMC4xMIIBIjANBgkqhkiG9w0BAQEFAAOCAQ8AMIIBCgKCAQEAxfu4X+ncD/1d
ih3rxrkNeVshCPRamx4DhihLWgfQVDkckTNuCE1wN6j8T1ufZMEgmQOKTZi4VfZU
UYWxRBsVgWizklLqb1/Kd4R5UF/q7+ZVzeFB5/eZ0wMIRgZEWbA3DUr5Hrk3V2EJ
QwL5lGD7lzALDC6GzwGGwGsDmYB43HFGdvsBlz8c8h/q1EZd+suz4HiT1XT7yEYR
HvfgYpgthYdkDEGMRxrnj/Amf9duEeXd4LXlsSJj+cqdSV4NAI4ina7LWoV8QXCO
FjQg7UsWrspaCvJrIrUjjK9zC8jfEOtDy3QbEHL+3H8nlWmtoRj1sxBsr/gYf4TX
Jh+pGSzJiwIDAQABo2EwXzAJBgNVHRMEAjAAMBEGA1UdEQQKMAiCBmJhZFNBTjAd
BgNVHQ4EFgQUTyuJxq+gwtLV/MS5WlcZgt6V9KUwCwYDVR0PBAQDAgWgMBMGA1Ud
JQQMMAoGCCsGAQUFBwMBMA0GCSqGSIb3DQEBCwUAA4IBAQBaIJfZyWd3cxML2l8D
RSszegMZZ7j0TJCF+RnDU2o+sJwHbPcJaSDcx6tTARrBNl8COZpZQ0M7gkmVnj/L
cAhPO/eJICQ6hyAZLJ8hW8fDrCEvLVhdJVAE/vjK178e3V1GOts25I970n4kNcX9
nb6HhT4PNLUTY5mAHKRQHV74/4jaxRIgKJTcHwvG5lWwZtQZC/DTwGkRhRhtTpgd
N4f7aJCguwL8aNpsoIekvCdu8Kd7mH9j7DhWQo+SBr0/cIfbnC0xVlIQgeIlsVOW
7d8SW4CmWfdPhn1cbi83ePVFpD4Hh1s6SleCnrMavlQoF5i4nzUQ2HF3cFkXP/Qw
yPmL
-----END CERTIFICATE-----
