-----BEGIN PRIVATE KEY-----
MIIEvgIBADANBgkqhkiG9w0BAQEFAASCBKgwggSkAgEAAoIBAQDAIpegzAwgnae4
RwVEaI+hRszc/6Z//UnDoAEi7bBT4rP+AuSERQnTnx6xkka+maxGFbEpWd5q8zsj
Q16TUxF0Ud8CjR2dLhmLzKgXlzyE6u8g6bcn9g+IsT6eJ9GoE8ezD0xuMdAU8VwQ
a4WNiEWKHH7iNNHePz+5UCs0VVSPdHnoBErE70aHOKIaBb+uELytVk8hBEmLONXL
8tF4bL85fl2WmGfrpkGYFslz8Z4EKjXVyFOv6bAKuYGAYcd0cojugvV8IhJlfWc2
gwZ5hQF16FKyzG45j0MMhMu7S860V+p2UKEpxWITxfMKdbBNglRcpLp+AR+xb074
2+CwVm/hAgMBAAECggEBAK0m/6tD+LH0ItCqAI80BCz+F2YbZzv1UmLgceW+e6g9
qKSEitjBNyfmQM0a3HKtH1pR9kUj3pRX+7W94x+2PwarOeWcs1GR2CfrGpmYDExl
RXhN6Gg1Eq7HvXzeuc1VdiVi5ihw7+vP0H5jyApTAwiCwb6uh2xZZ95j52vUcs6M
QcLWFucjgyz6VqDv9ySA87Sw+qoGr9Xo22w320go2KEwZgqbhjfCqZByVAivaVE2
8tKd4RVtbCZvRZJpdL1fgiP/1AsD/VLyjBVQVaexLaSIyWAoxssHeXmOjG9tIvsa
SDXBBmXt8p1bc8Rzr1fg+bDjSwo1EkQSySVWwQL1vSECgYEA9sQNR+conpXADL+H
bsX2ClEXmU1OG0JmU0W+NIjd+pCtcBuB7FFgGR7259Kuoq0rKrClMuUWFm0yAy0k
ZvnANyEvLgMdVmGNc0e/GNtDX6IJQTsWM0OdebVNdHaBfWbj+9oxWBBSY+RGNo3t
xRIH19Sbu3/prfmafhU0J4mK7IUCgYEAx1MxhvCPQrty5focScvRQNWkAjZtPdwc
oah6BJ+3iwdardsQB5TuIzBidvs0FHxHpSHA2b7PMH9WkP/OZKdxsgCja3dsXEf4
l1vKr4pXJHfx5/LIbkf8QZuhdNaaMeuVrJriyPGNua23nGCenWWFYpPSDZxDV1wc
OYfPHyaKUq0CgYAyv6MTlICQDLAQbxtFNsUg3giCaJmVlZRBr+gsGbG9JB/nHGEd
3qZqxCl3B6cOoZptDyMKUn62YgKVEKWZ3+cd718qkU1pRGq4uJqeXAmBE2vf1Gz+
Yfty2kxxlSWQSqa8VuUq/UBUds/RzGKH0ut2Aa19ZBMEyn5xS58MOoctmQKBgQC3
dTsAmClDooP+aFXhFldi9UAfSTkC1rUDla2408h7jilIG3iFge4tNTtrh4pH0Jug
wZBe2eCZIprqmoe83OEolK3VG/YAeb20kifbqdjLGBrvAea4mkjzmerhPyRtDgiU
9XoGuU1YuStmIwfalrZOJQAQxuK0ZXMVAIsCgNaPgQKBgC9K8Not3nYOFh1hmPZs
xvJ7nVsz0xKJK9gq0kqnmg+UkGDvlieZEamXXiJFKGMAs/75SG0IERbvDEHXlSQd
69pje5L0RIoG63vEtI5EoigNHnpfdzGZZinvGSA8OdPzhHZG7AXH0kmCIvu8Ipwi
QU8sipT2m0P/OTldqTRtBb2J
-----END PRIVATE KEY-----
Certificate:
    Data:
        Version: 3 (0x2)
        Serial Number: 4 (0x4)
        Signature Algorithm: sha256WithRSAEncryption
        Issuer: CN=Kernel Test CA, OU=Kernel, O=MongoDB, L=New York City, ST=New York, C=US
        Validity
            Not Before: May 13 14:47:19 2019 GMT
            Not After : May 10 14:47:19 2029 GMT
        Subject: C=US, ST=New York, L=New York City, O=MongoDB, OU=KernelUser, CN=client_revoked
        Subject Public Key Info:
            Public Key Algorithm: rsaEncryption
                RSA Public-Key: (2048 bit)
                Modulus:
                    00:c0:22:97:a0:cc:0c:20:9d:a7:b8:47:05:44:68:
                    8f:a1:46:cc:dc:ff:a6:7f:fd:49:c3:a0:01:22:ed:
                    b0:53:e2:b3:fe:02:e4:84:45:09:d3:9f:1e:b1:92:
                    46:be:99:ac:46:15:b1:29:59:de:6a:f3:3b:23:43:
                    5e:93:53:11:74:51:df:02:8d:1d:9d:2e:19:8b:cc:
                    a8:17:97:3c:84:ea:ef:20:e9:b7:27:f6:0f:88:b1:
                    3e:9e:27:d1:a8:13:c7:b3:0f:4c:6e:31:d0:14:f1:
                    5c:10:6b:85:8d:88:45:8a:1c:7e:e2:34:d1:de:3f:
                    3f:b9:50:2b:34:55:54:8f:74:79:e8:04:4a:c4:ef:
                    46:87:38:a2:1a:05:bf:ae:10:bc:ad:56:4f:21:04:
                    49:8b:38:d5:cb:f2:d1:78:6c:bf:39:7e:5d:96:98:
                    67:eb:a6:41:98:16:c9:73:f1:9e:04:2a:35:d5:c8:
                    53:af:e9:b0:0a:b9:81:80:61:c7:74:72:88:ee:82:
                    f5:7c:22:12:65:7d:67:36:83:06:79:85:01:75:e8:
                    52:b2:cc:6e:39:8f:43:0c:84:cb:bb:4b:ce:b4:57:
                    ea:76:50:a1:29:c5:62:13:c5:f3:0a:75:b0:4d:82:
                    54:5c:a4:ba:7e:01:1f:b1:6f:4e:f8:db:e0:b0:56:
                    6f:e1
                Exponent: 65537 (0x10001)
        X509v3 extensions:
            X509v3 Basic Constraints: 
                CA:FALSE
            X509v3 Subject Key Identifier: 
                FA:44:60:2A:D2:67:5E:08:C5:74:4E:A9:8A:35:38:4F:5F:5E:73:F3
            X509v3 Key Usage: 
                Digital Signature, Key Encipherment
            X509v3 Extended Key Usage: 
                TLS Web Client Authentication
    Signature Algorithm: sha256WithRSAEncryption
         1d:d4:bc:e7:37:1e:52:7b:09:76:99:ad:47:fc:fe:20:7f:13:
         9f:42:ed:0d:6e:37:7d:a1:41:58:e0:4e:39:3b:67:93:fc:a7:
         3b:fe:71:33:a5:d8:1f:76:b8:e4:2e:ab:0a:17:95:8f:c5:62:
         47:21:65:66:ca:7b:35:e9:e5:16:e4:c2:28:5a:42:22:06:78:
         1c:bf:54:80:5d:90:e6:0d:bf:bf:67:75:7a:b7:30:22:18:9a:
         01:92:1b:af:0c:d7:60:22:7e:ea:9b:d1:4a:6f:69:8c:63:9c:
         a7:6b:e8:fb:70:20:4b:0e:be:5b:df:df:ed:08:be:c7:91:3a:
         b8:01:4f:55:6f:dc:8d:dc:09:30:22:83:fc:fa:a0:f3:96:fb:
         0b:ae:f8:ee:97:f0:0e:fa:8f:05:ad:64:cc:67:4e:b2:14:21:
         44:61:d3:5c:b9:3a:4c:fb:54:6a:20:18:2f:6c:97:31:35:05:
         64:15:9f:b5:df:5d:a5:e3:81:b2:e5:58:5c:be:42:09:d0:65:
         96:44:a4:8f:ec:89:f9:29:23:8a:38:19:c0:20:54:fa:a2:ee:
         fe:17:a1:30:b2:f4:f2:f3:a6:e2:bf:76:47:be:ac:f4:f5:54:
         1d:99:cc:c0:52:74:8f:bb:f8:dd:2a:52:41:49:57:af:11:b1:
         d6:b9:b7:a4
-----BEGIN CERTIFICATE-----
MIIDtTCCAp2gAwIBAgIBBDANBgkqhkiG9w0BAQsFADB0MRcwFQYDVQQDEw5LZXJu
ZWwgVGVzdCBDQTEPMA0GA1UECxMGS2VybmVsMRAwDgYDVQQKEwdNb25nb0RCMRYw
FAYDVQQHEw1OZXcgWW9yayBDaXR5MREwDwYDVQQIEwhOZXcgWW9yazELMAkGA1UE
BhMCVVMwHhcNMTkwNTEzMTQ0NzE5WhcNMjkwNTEwMTQ0NzE5WjB4MQswCQYDVQQG
EwJVUzERMA8GA1UECAwITmV3IFlvcmsxFjAUBgNVBAcMDU5ldyBZb3JrIENpdHkx
EDAOBgNVBAoMB01vbmdvREIxEzARBgNVBAsMCktlcm5lbFVzZXIxFzAVBgNVBAMM
DmNsaWVudF9yZXZva2VkMIIBIjANBgkqhkiG9w0BAQEFAAOCAQ8AMIIBCgKCAQEA
wCKXoMwMIJ2nuEcFRGiPoUbM3P+mf/1Jw6ABIu2wU+Kz/gLkhEUJ058esZJGvpms
RhWxKVneavM7I0Nek1MRdFHfAo0dnS4Zi8yoF5c8hOrvIOm3J/YPiLE+nifRqBPH
sw9MbjHQFPFcEGuFjYhFihx+4jTR3j8/uVArNFVUj3R56ARKxO9GhziiGgW/rhC8
rVZPIQRJizjVy/LReGy/OX5dlphn66ZBmBbJc/GeBCo11chTr+mwCrmBgGHHdHKI
7oL1fCISZX1nNoMGeYUBdehSssxuOY9DDITLu0vOtFfqdlChKcViE8XzCnWwTYJU
XKS6fgEfsW9O+NvgsFZv4QIDAQABo04wTDAJBgNVHRMEAjAAMB0GA1UdDgQWBBT6
RGAq0mdeCMV0TqmKNThPX15z8zALBgNVHQ8EBAMCBaAwEwYDVR0lBAwwCgYIKwYB
BQUHAwIwDQYJKoZIhvcNAQELBQADggEBAB3UvOc3HlJ7CXaZrUf8/iB/E59C7Q1u
N32hQVjgTjk7Z5P8pzv+cTOl2B92uOQuqwoXlY/FYkchZWbKezXp5RbkwihaQiIG
eBy/VIBdkOYNv79ndXq3MCIYmgGSG68M12Aifuqb0UpvaYxjnKdr6PtwIEsOvlvf
3+0IvseROrgBT1Vv3I3cCTAig/z6oPOW+wuu+O6X8A76jwWtZMxnTrIUIURh01y5
Okz7VGogGC9slzE1BWQVn7XfXaXjgbLlWFy+QgnQZZZEpI/sifkpI4o4GcAgVPqi
7v4XoTCy9PLzpuK/dke+rPT1VB2ZzMBSdI+7+N0qUkFJV68Rsda5t6Q=
-----END CERTIFICATE-----
