-----BEGIN RSA PRIVATE KEY-----
MIIEowIBAAKCAQEAwiVDsnHAL2fRW7lFMrkZOGbIuKXB/zjO4wctQLVEdH/YW0Ho
Oifh2zSwENU4LPm+FqPqRyWYr63LyzmnakA74d47Vp2np+MCsOji6ktDgbZkOuC5
NSsw0Fg5PjhKzvC2LtXtB6MO4JJnG2t67fImZyHRoFrNWVK7khhF3fc6PKEkQ6zc
Z40cSTOLrEqPoj9AAgH+HWcgPg909EW1GrDA/nds7H8tbXmWyEr6TJ6/7YGe6QOl
cLUvkdc0Sq2jQR3fCIjVqI2KA2EQGoaDNUq8K5Mqza2sZpXw+sX8P//eGe2Q23CR
q83hRJMMzpRTZKT5YfyEGwMJ8SpkezkQnnZdEQIDAQABAoIBAQCGSyqRw7dx0zlx
Xi2skXcNmaOcfiQ8O/p39h3qVbjdcRWiwms11yKW89IaQrMSAUro9Ed5IVuFog2H
LQFOMNJ7QbMADhvLuO7CmsVj1d4DWrvoMkxKp+6jH3OxQ1UT4lPS/+1uy+7djse9
otIsx8SisDUF2+mRsPXIb/vcN0hUaNiFIo2myv8L8YHkwQtPnB1650uZsd3FCEGl
5+1uvCj63Y3PP8R1HqX+U8p3QbvbBnVdXHMlKXj2FJm7bmTL8uxpjxlM3LWNLSki
X+TZBAiFcfuROdLALfLuxq0AETq/X7uiNS3Wzw/ZABXF5oo7KMWM9uotIwONyFt3
/iIqppL1AoGBAPlfaAeKNjMIts+UDF+UsZW40O3+Qq1QwK6vnL2o7rOeM6NM0ErT
Akm4lY82YUymTvZmLZBGbu7ZWVayD/ePJHPts7VIIz3IsODNx2RMuE140ceYrNnX
Oz0RbEeFDBSoORoKo7PkaGLx7XaaMIkX38F4sqwKyZV054yAJ91JKTcPAoGBAMdO
H5QrYmjXw6hYZmUKqN9VrEqJCjFkmM9NekB5fb8c26VGRPPvWkY3m004Fm8RFemM
vJa8AXKmMpF3qKFjJ1U5qDuZ/MOnn1Z0KcVHOUXg2ZAMq17m1dH6bfDYWYx2nu/1
In+qFTo9tS9wVP58hyQ3Nz9PHAYqL8iFy81qYinfAoGAA9Xj07nce4x2w1qTliTD
VnoxPHfcrq2/SPCKiKBAi6KzSJ+11HDKaDfelQVRGcy1CjUoHj/3FNVi+mJivHwH
I4FUckVZxWmAzvRbTL+hVg+1qkw+3FrjHl1WPQNe3DJ6LlxbiDjLIjp2XIyiknk7
h85DcUH5N8NEjHSsKEsnxyECgYAW/zKxnBfs1Qikgh6+he5aZr5Mk2dzr5HaSaxT
iDE0PhYyCdum8fVOqNfonxInmqcWncCc+/CG1Bp9onr4tEIzmUWKKwh5YvwFs72m
H8PCBmHUN0IG30fIxMauxaf/hyhrs7NZW7y7Tad8Y8/K1X+adCyRx4UKSQ/eaWHM
v/u3rQKBgCDj9s/ls+1360dgDVVDqoxzHfUltjr5bmJZe5xA8P26nESLj/OBDVzb
vj50Wey1KiEl2Pj74ttn4ItRu6DA/3dzhopropLh5cmY7Nac+vXuuAsUql2vBHX6
CCZyOW36kf9yt+0Zay2RGOW6xcBXGIPxp8SM8V63DF58XrZUnyIJ
-----END RSA PRIVATE KEY-----
Certificate:
    Data:
        Version: 3 (0x2)
        Serial Number: 7 (0x7)
        Signature Algorithm: sha256WithRSAEncryption
        Issuer: C=US, ST=New York, L=New York City, O=MongoDB, OU=KernelUser, CN=client
        Validity
            Not Before: May  9 18:00:36 2019 GMT
            Not After : May  6 18:00:36 2029 GMT
        Subject: C=US, ST=New York, L=New York City, O=MongoDB, OU=KernelUser, CN=client
        Subject Public Key Info:
            Public Key Algorithm: rsaEncryption
                RSA Public-Key: (2048 bit)
                Modulus:
                    00:c2:25:43:b2:71:c0:2f:67:d1:5b:b9:45:32:b9:
                    19:38:66:c8:b8:a5:c1:ff:38:ce:e3:07:2d:40:b5:
                    44:74:7f:d8:5b:41:e8:3a:27:e1:db:34:b0:10:d5:
                    38:2c:f9:be:16:a3:ea:47:25:98:af:ad:cb:cb:39:
                    a7:6a:40:3b:e1:de:3b:56:9d:a7:a7:e3:02:b0:e8:
                    e2:ea:4b:43:81:b6:64:3a:e0:b9:35:2b:30:d0:58:
                    39:3e:38:4a:ce:f0:b6:2e:d5:ed:07:a3:0e:e0:92:
                    67:1b:6b:7a:ed:f2:26:67:21:d1:a0:5a:cd:59:52:
                    bb:92:18:45:dd:f7:3a:3c:a1:24:43:ac:dc:67:8d:
                    1c:49:33:8b:ac:4a:8f:a2:3f:40:02:01:fe:1d:67:
                    20:3e:0f:74:f4:45:b5:1a:b0:c0:fe:77:6c:ec:7f:
                    2d:6d:79:96:c8:4a:fa:4c:9e:bf:ed:81:9e:e9:03:
                    a5:70:b5:2f:91:d7:34:4a:ad:a3:41:1d:df:08:88:
                    d5:a8:8d:8a:03:61:10:1a:86:83:35:4a:bc:2b:93:
                    2a:cd:ad:ac:66:95:f0:fa:c5:fc:3f:ff:de:19:ed:
                    90:db:70:91:ab:cd:e1:44:93:0c:ce:94:53:64:a4:
                    f9:61:fc:84:1b:03:09:f1:2a:64:7b:39:10:9e:76:
                    5d:11
                Exponent: 65537 (0x10001)
        X509v3 extensions:
            X509v3 Basic Constraints: 
                CA:FALSE
            X509v3 Key Usage: 
                Digital Signature, Non Repudiation, Key Encipherment
            X509v3 Extended Key Usage: 
                TLS Web Client Authentication
            Netscape Comment: 
                OpenSSL Generated Certificate
            X509v3 Subject Key Identifier: 
                25:6A:3B:7A:80:BD:CF:5D:71:36:A3:5B:1E:75:86:87:63:52:B9:23
            X509v3 Authority Key Identifier: 
                keyid:25:6A:3B:7A:80:BD:CF:5D:71:36:A3:5B:1E:75:86:87:63:52:B9:23

    Signature Algorithm: sha256WithRSAEncryption
         bc:79:dc:c8:06:70:f0:8a:20:db:27:5a:b0:8e:98:28:12:7e:
         74:77:0d:9f:5b:17:49:65:d7:28:65:27:36:93:0b:3f:4f:86:
         59:e2:9b:ca:63:3e:0f:69:5b:64:0c:99:25:76:7d:99:1c:81:
         ee:4a:08:d6:0b:e9:3c:ec:b8:ed:33:2b:c6:ab:f0:fb:4d:79:
         a9:e0:19:22:ab:5a:8d:ab:f6:4d:2a:17:df:8d:aa:2b:26:61:
         92:8a:3e:17:71:07:0a:b9:70:73:36:1f:48:2b:f0:0c:2a:b6:
         fc:17:bd:a3:1c:fb:a5:a7:cc:c3:c2:0b:de:ef:bc:17:07:9e:
         53:59:74:1a:3e:2a:96:e4:91:f4:59:7d:59:33:23:ad:c9:67:
         22:7e:af:88:9b:27:0c:13:b2:e3:3e:57:c4:55:d4:c2:be:96:
         e8:f3:67:24:f9:81:ee:a4:f6:66:52:fd:6e:ae:55:b8:86:de:
         79:49:8f:d7:08:d5:db:1e:3b:77:b6:89:37:9d:43:04:5b:2e:
         d1:88:47:47:75:64:3c:e9:59:87:74:84:3b:b7:41:c4:e7:15:
         0a:e5:59:f7:5e:e0:09:45:39:89:ac:3d:54:2f:c7:02:fd:9e:
         95:77:09:71:53:06:9a:5f:be:73:38:f7:4a:7a:83:81:1c:a1:
         63:35:8e:95
-----BEGIN CERTIFICATE-----
MIID+jCCAuKgAwIBAgIBBzANBgkqhkiG9w0BAQsFADBwMQswCQYDVQQGEwJVUzER
MA8GA1UECBMITmV3IFlvcmsxFjAUBgNVBAcTDU5ldyBZb3JrIENpdHkxEDAOBgNV
BAoTB01vbmdvREIxEzARBgNVBAsTCktlcm5lbFVzZXIxDzANBgNVBAMTBmNsaWVu
dDAeFw0xOTA1MDkxODAwMzZaFw0yOTA1MDYxODAwMzZaMHAxCzAJBgNVBAYTAlVT
MREwDwYDVQQIEwhOZXcgWW9yazEWMBQGA1UEBxMNTmV3IFlvcmsgQ2l0eTEQMA4G
A1UEChMHTW9uZ29EQjETMBEGA1UECxMKS2VybmVsVXNlcjEPMA0GA1UEAxMGY2xp
ZW50MIIBIjANBgkqhkiG9w0BAQEFAAOCAQ8AMIIBCgKCAQEAwiVDsnHAL2fRW7lF
MrkZOGbIuKXB/zjO4wctQLVEdH/YW0HoOifh2zSwENU4LPm+FqPqRyWYr63Lyzmn
akA74d47Vp2np+MCsOji6ktDgbZkOuC5NSsw0Fg5PjhKzvC2LtXtB6MO4JJnG2t6
7fImZyHRoFrNWVK7khhF3fc6PKEkQ6zcZ40cSTOLrEqPoj9AAgH+HWcgPg909EW1
GrDA/nds7H8tbXmWyEr6TJ6/7YGe6QOlcLUvkdc0Sq2jQR3fCIjVqI2KA2EQGoaD
NUq8K5Mqza2sZpXw+sX8P//eGe2Q23CRq83hRJMMzpRTZKT5YfyEGwMJ8SpkezkQ
nnZdEQIDAQABo4GeMIGbMAkGA1UdEwQCMAAwCwYDVR0PBAQDAgXgMBMGA1UdJQQM
MAoGCCsGAQUFBwMCMCwGCWCGSAGG+EIBDQQfFh1PcGVuU1NMIEdlbmVyYXRlZCBD
ZXJ0aWZpY2F0ZTAdBgNVHQ4EFgQUJWo7eoC9z11xNqNbHnWGh2NSuSMwHwYDVR0j
BBgwFoAUJWo7eoC9z11xNqNbHnWGh2NSuSMwDQYJKoZIhvcNAQELBQADggEBALx5
3MgGcPCKINsnWrCOmCgSfnR3DZ9bF0ll1yhlJzaTCz9Phlnim8pjPg9pW2QMmSV2
fZkcge5KCNYL6TzsuO0zK8ar8PtNeangGSKrWo2r9k0qF9+NqismYZKKPhdxBwq5
cHM2H0gr8AwqtvwXvaMc+6WnzMPCC97vvBcHnlNZdBo+KpbkkfRZfVkzI63JZyJ+
r4ibJwwTsuM+V8RV1MK+lujzZyT5ge6k9mZS/W6uVbiG3nlJj9cI1dseO3e2iTed
QwRbLtGIR0d1ZDzpWYd0hDu3QcTnFQrlWfde4AlFOYmsPVQvxwL9npV3CXFTBppf
vnM490p6g4EcoWM1jpU=
-----END CERTIFICATE-----
