-----BEGIN PRIVATE KEY-----
MIIEvgIBADANBgkqhkiG9w0BAQEFAASCBKgwggSkAgEAAoIBAQDJyauFhtHK3W3b
kFUiz/24lEi0VOesmDF5c/sUO67h+IXVdLUSz/v2tb30cgk8GhppczwcpZp98gTx
NgI3Z5ZRPumzK9Aw8l1p23YtDGzSdfsXGjOeab2MieRCHtbL847doxHae3C7YofJ
NTmJOVan4vviUT7YRBK0kSDgADOGtkt9YeviyPoX6vr9izcyTTg2Z/Zbm64zMNOo
ifyvi6i0P1HN708KVPsKpek87Hdi8LAy1QfLdDe3Z7dhUP0H0A5EQhDcd7FlAxwh
WqdMmm81STj4cvgWx1XSAHL7vj1s4O0qN5nEAb4lenSIIP7flGKyevU7fnGZg2I7
rVQ3D0wRAgMBAAECggEBAK/uL6hMYk8f/a8nyMKAWvL5/eWT/SWCz+fXUfpTCuej
mXQAu/q58TEpRYOBhUGsdIip2qgTTn4ua1auwwHxQ6J0WqdHNM3oEb/AgulF4v8f
tBpxUr3z7TpB4wwu/RF2uYHNsjwt0ZzejArGZ/KXVlEr2nZ4ZXWC7FgYDHSgWExC
ySoI/XeeB+t3jJPjvKOj/EjexNC1qIJwV+YSrbZ4geAJsJf4TvzeY49G+Fng+c6b
bxD+aay+8NuROYt0zI+ufnMqr96FLyyrsO79auJRxeitwU6A2Hl/KLLoOn2vK5Q7
6K/HmBsFC5k1NXTOG8hO3PdnqjCaslbwRCqUWlaxMsECgYEA7LJLAIYJ2gPZta/H
aKPbFYaVcBjkwN6QST6KyjlYTuHYITyMuLwdpeXyo0WZnohLA6L7FMN/JZF9i8f4
3ip4TnOHuNvzerrtyjjyiMsLX/pMSPTTl6gtRNrppSRlPBphH+KbBdI4TZXmx8d9
IoOe/kRomgukroZ90xy4CCTs8SkCgYEA2j6PRqZ0TCBhuAUbPNLtz2KbzIlXBU8I
KNurI34La72bgyjJ1Nc+l964VnRM2XA63Xix7H5dTWuUHdv93WMn3PvPVE8vk9eF
6ox3ANfa/+WU36ajP224iTLDNpmbLG808gGUKhcRGW+NcbhQKoVMxl9mfl1zn/NL
QjecaIeOWKkCgYAGBUb5HW+0tvJbt7vnwns5IfI9JrTy3vZmlourNygy4XXA6qxd
qpNKe/3e/084BBl8XzHpxks+pmO+IXkIFaZ3wGKMZjPcRFL2GNq6dge1CkXUeT3E
lseH/9V/mNxmWflseTQeQsmh15VGMaHSNezeZNkQSgmHUu5yZ0GbG21XeQKBgHoI
3UjeLs2alcm2YUKjl4KNWx0F9vjq9l8SZiHUi0JVpa2zkxhGu6NkUKNXKNm1HdVV
dfgNuNJfw1Tm/I9csJ+q1oYIOUxsCV/b53c7PCQ3FgXxQftnuPZOwkW3osM3890W
8OiQOWmFrQvXykvcec+67K7gRpU8D+sY+YahtgDxAoGBAJOduSQpjFgd4oTHBwI6
ULhnGIPX7Yguf8MdP4rjbbbUyvbbMqYsMKaXvRhj8h/Fh9NhvST1dSV6y6RtLo3E
+MNuHDERk2C1RI9OipsttsBB2C6RKpTdHh+iAdUM8BkQYhvwvKJCHWpYdJ5239b3
5Ghd3XrN4HKu9FaiEz01IKVH
-----END PRIVATE KEY-----
Certificate:
    Data:
        Version: 3 (0x2)
        Serial Number: 2 (0x2)
        Signature Algorithm: sha256WithRSAEncryption
        Issuer: CN=Kernel Test CA, OU=Kernel, O=MongoDB, L=New York City, ST=New York, C=US
        Validity
            Not Before: May 13 14:39:50 2019 GMT
            Not After : May 10 14:39:50 2029 GMT
        Subject: C=US, ST=New York, L=New York City, O=MongoDB, OU=KernelUser, CN=client
        Subject Public Key Info:
            Public Key Algorithm: rsaEncryption
                RSA Public-Key: (2048 bit)
                Modulus:
                    00:c9:c9:ab:85:86:d1:ca:dd:6d:db:90:55:22:cf:
                    fd:b8:94:48:b4:54:e7:ac:98:31:79:73:fb:14:3b:
                    ae:e1:f8:85:d5:74:b5:12:cf:fb:f6:b5:bd:f4:72:
                    09:3c:1a:1a:69:73:3c:1c:a5:9a:7d:f2:04:f1:36:
                    02:37:67:96:51:3e:e9:b3:2b:d0:30:f2:5d:69:db:
                    76:2d:0c:6c:d2:75:fb:17:1a:33:9e:69:bd:8c:89:
                    e4:42:1e:d6:cb:f3:8e:dd:a3:11:da:7b:70:bb:62:
                    87:c9:35:39:89:39:56:a7:e2:fb:e2:51:3e:d8:44:
                    12:b4:91:20:e0:00:33:86:b6:4b:7d:61:eb:e2:c8:
                    fa:17:ea:fa:fd:8b:37:32:4d:38:36:67:f6:5b:9b:
                    ae:33:30:d3:a8:89:fc:af:8b:a8:b4:3f:51:cd:ef:
                    4f:0a:54:fb:0a:a5:e9:3c:ec:77:62:f0:b0:32:d5:
                    07:cb:74:37:b7:67:b7:61:50:fd:07:d0:0e:44:42:
                    10:dc:77:b1:65:03:1c:21:5a:a7:4c:9a:6f:35:49:
                    38:f8:72:f8:16:c7:55:d2:00:72:fb:be:3d:6c:e0:
                    ed:2a:37:99:c4:01:be:25:7a:74:88:20:fe:df:94:
                    62:b2:7a:f5:3b:7e:71:99:83:62:3b:ad:54:37:0f:
                    4c:11
                Exponent: 65537 (0x10001)
        X509v3 extensions:
            X509v3 Basic Constraints: 
                CA:FALSE
            X509v3 Subject Key Identifier: 
                72:41:CD:3B:19:0F:71:1B:98:A6:94:61:25:B8:9C:58:7C:6F:4D:B3
            X509v3 Key Usage: 
                Digital Signature, Key Encipherment
            X509v3 Extended Key Usage: 
                TLS Web Client Authentication
    Signature Algorithm: sha256WithRSAEncryption
         06:f1:f9:fd:38:a8:e5:8d:94:2e:6b:1f:74:b9:70:eb:52:98:
         fe:62:b2:47:76:a2:df:f7:1b:af:72:51:6f:b8:8a:33:4a:3f:
         78:41:d3:b0:5d:94:2e:1c:ab:e7:3d:8d:88:51:66:5c:35:ff:
         22:4c:a7:a6:df:b9:0e:ec:95:22:63:a4:f0:89:9e:ee:00:2f:
         07:33:fc:1a:a5:72:34:e4:5b:a4:75:de:a9:7f:ca:a4:39:14:
         c5:ae:98:6a:9d:f8:8c:16:cf:6c:d2:aa:45:5b:66:05:a1:ae:
         e8:65:3d:c3:18:80:54:6d:45:14:01:a2:ee:5e:29:23:9e:ee:
         65:43:ff:88:11:00:09:32:7f:6b:e8:14:a3:74:20:20:02:ec:
         fb:01:f7:cd:1c:82:de:1e:ac:52:b7:f4:e9:a1:a4:de:6d:1e:
         31:e5:fa:7f:6e:06:01:5b:83:97:45:94:93:16:f2:95:66:21:
         b3:6f:fc:03:8f:6c:3a:30:ba:16:cd:b8:0d:7c:f9:97:d9:a9:
         76:76:98:07:9f:0f:bf:8f:17:e4:76:7e:a4:00:6c:cb:35:6f:
         69:7f:62:d5:dd:62:51:09:ad:c6:9d:8c:e4:58:08:53:7b:fa:
         4a:d2:69:8d:59:06:a2:e9:6a:2a:2e:b4:94:0c:f8:12:15:86:
         bf:ef:af:60
-----BEGIN CERTIFICATE-----
MIIDrTCCApWgAwIBAgIBAjANBgkqhkiG9w0BAQsFADB0MRcwFQYDVQQDEw5LZXJu
ZWwgVGVzdCBDQTEPMA0GA1UECxMGS2VybmVsMRAwDgYDVQQKEwdNb25nb0RCMRYw
FAYDVQQHEw1OZXcgWW9yayBDaXR5MREwDwYDVQQIEwhOZXcgWW9yazELMAkGA1UE
BhMCVVMwHhcNMTkwNTEzMTQzOTUwWhcNMjkwNTEwMTQzOTUwWjBwMQswCQYDVQQG
EwJVUzERMA8GA1UECAwITmV3IFlvcmsxFjAUBgNVBAcMDU5ldyBZb3JrIENpdHkx
EDAOBgNVBAoMB01vbmdvREIxEzARBgNVBAsMCktlcm5lbFVzZXIxDzANBgNVBAMM
BmNsaWVudDCCASIwDQYJKoZIhvcNAQEBBQADggEPADCCAQoCggEBAMnJq4WG0crd
bduQVSLP/biUSLRU56yYMXlz+xQ7ruH4hdV0tRLP+/a1vfRyCTwaGmlzPBylmn3y
BPE2AjdnllE+6bMr0DDyXWnbdi0MbNJ1+xcaM55pvYyJ5EIe1svzjt2jEdp7cLti
h8k1OYk5Vqfi++JRPthEErSRIOAAM4a2S31h6+LI+hfq+v2LNzJNODZn9lubrjMw
06iJ/K+LqLQ/Uc3vTwpU+wql6Tzsd2LwsDLVB8t0N7dnt2FQ/QfQDkRCENx3sWUD
HCFap0yabzVJOPhy+BbHVdIAcvu+PWzg7So3mcQBviV6dIgg/t+UYrJ69Tt+cZmD
YjutVDcPTBECAwEAAaNOMEwwCQYDVR0TBAIwADAdBgNVHQ4EFgQUckHNOxkPcRuY
ppRhJbicWHxvTbMwCwYDVR0PBAQDAgWgMBMGA1UdJQQMMAoGCCsGAQUFBwMCMA0G
CSqGSIb3DQEBCwUAA4IBAQAG8fn9OKjljZQuax90uXDrUpj+YrJHdqLf9xuvclFv
uIozSj94QdOwXZQuHKvnPY2IUWZcNf8iTKem37kO7JUiY6TwiZ7uAC8HM/wapXI0
5Fukdd6pf8qkORTFrphqnfiMFs9s0qpFW2YFoa7oZT3DGIBUbUUUAaLuXikjnu5l
Q/+IEQAJMn9r6BSjdCAgAuz7AffNHILeHqxSt/TpoaTebR4x5fp/bgYBW4OXRZST
FvKVZiGzb/wDj2w6MLoWzbgNfPmX2al2dpgHnw+/jxfkdn6kAGzLNW9pf2LV3WJR
Ca3GnYzkWAhTe/pK0mmNWQai6WoqLrSUDPgSFYa/769g
-----END CERTIFICATE-----
