Certificate Revocation List (CRL):
        Version 2 (0x1)
    Signature Algorithm: sha256WithRSAEncryption
        Issuer: /CN=Kernel Test CA/OU=Kernel/O=MongoDB/L=New York City/ST=New York/C=US
        Last Update: Jul 21 19:45:56 2014 GMT
        Next Update: Aug 20 19:45:56 2014 GMT
        CRL extensions:
            X509v3 CRL Number: 
                4096
No Revoked Certificates.
    Signature Algorithm: sha256WithRSAEncryption
         09:59:68:46:4b:34:1a:51:bb:78:27:c0:6c:36:df:bb:7d:6e:
         5c:a5:72:d9:8b:c3:da:94:e6:04:1e:21:78:e7:a1:ab:9a:47:
         45:00:b7:4c:25:58:bf:98:aa:f3:fb:76:2a:0f:5b:1a:a3:c2:
         17:8c:c9:b0:cf:32:b4:fc:fc:31:ed:94:0e:55:f9:d1:05:d1:
         41:04:f7:c3:62:23:eb:bf:71:6a:8e:42:ee:d0:ca:93:bf:d0:
         82:00:2b:2e:55:7c:c1:7f:84:2f:4f:cf:33:74:68:52:2a:70:
         d0:51:d2:a2:63:43:71:6c:89:86:57:e6:cf:e3:c9:97:27:6a:
         a0:02:4e:76:c3:80:5f:de:a7:92:c0:81:16:57:c2:62:2a:62:
         19:ce:0e:77:22:8d:64:0d:e2:83:97:c2:ab:41:65:c0:31:5a:
         51:6b:98:f9:9c:06:bb:70:4b:ae:17:1a:c7:c1:7d:a5:5c:ff:
         7a:98:54:b6:99:c8:b5:86:9f:d9:11:9e:c5:2b:0e:26:9d:9b:
         df:53:d2:35:70:ff:c2:a0:7e:08:da:90:5d:38:51:f1:0a:0a:
         70:91:ad:fc:82:54:f6:e8:12:7b:76:d7:a2:f5:cd:39:79:d3:
         4f:6f:4c:e2:71:bb:ea:a5:3a:93:d1:0a:f0:48:25:80:60:4d:
         c3:9e:ce:82
-----BEGIN X509 CRL-----
MIIBzjCBtwIBATANBgkqhkiG9w0BAQsFADB0MRcwFQYDVQQDEw5LZXJuZWwgVGVz
dCBDQTEPMA0GA1UECxMGS2VybmVsMRAwDgYDVQQKEwdNb25nb0RCMRYwFAYDVQQH
Ew1OZXcgWW9yayBDaXR5MREwDwYDVQQIEwhOZXcgWW9yazELMAkGA1UEBhMCVVMX
DTE0MDcyMTE5NDU1NloXDTE0MDgyMDE5NDU1NlqgDzANMAsGA1UdFAQEAgIQADAN
BgkqhkiG9w0BAQsFAAOCAQEACVloRks0GlG7eCfAbDbfu31uXKVy2YvD2pTmBB4h
eOehq5pHRQC3TCVYv5iq8/t2Kg9bGqPCF4zJsM8ytPz8Me2UDlX50QXRQQT3w2Ij
679xao5C7tDKk7/QggArLlV8wX+EL0/PM3RoUipw0FHSomNDcWyJhlfmz+PJlydq
oAJOdsOAX96nksCBFlfCYipiGc4OdyKNZA3ig5fCq0FlwDFaUWuY+ZwGu3BLrhca
x8F9pVz/ephUtpnItYaf2RGexSsOJp2b31PSNXD/wqB+CNqQXThR8QoKcJGt/IJU
9ugSe3bXovXNOXnTT29M4nG76qU6k9EK8EglgGBNw57Ogg==
-----END X509 CRL-----
