Certificate Revocation List (CRL):
        Version 2 (0x1)
    Signature Algorithm: sha256WithRSAEncryption
        Issuer: /CN=Kernel Test CA/OU=Kernel/O=MongoDB/L=New York City/ST=New York/C=US
        Last Update: Jul 21 19:45:56 2014 GMT
        Next Update: Aug 20 19:45:56 2014 GMT
        CRL extensions:
            X509v3 CRL Number: 
                4096
Revoked Certificates:
    Serial Number: 02
        Revocation Date: Jul 21 19:45:56 2014 GMT
    Signature Algorithm: sha256WithRSAEncryption
         09:4f:f1:ba:f1:61:4d:33:ba:44:6e:16:7f:b1:a3:37:81:6b:
         a1:4c:aa:f8:83:27:b5:50:c6:d4:ea:2a:75:a0:ba:a8:38:62:
         3b:66:54:6b:ba:d7:15:d8:08:4c:77:0c:1c:db:56:a8:0d:5c:
         a7:fa:49:46:f6:20:93:1d:79:ad:39:15:8c:b5:d8:c8:9c:c5:
         54:94:e9:23:33:3e:8f:aa:ad:a5:7e:74:dc:95:fc:6d:8b:ec:
         22:a0:74:a9:41:fc:fa:df:59:18:37:d8:49:d7:37:2b:f1:65:
         9a:2f:1b:b9:78:a1:f3:cf:90:df:a2:4e:9a:61:29:b5:0f:ae:
         1c:86:a5:27:9b:79:05:c9:32:c5:3f:85:de:27:94:15:87:8a:
         b3:87:b4:08:c7:c5:99:be:13:3c:67:00:78:5a:25:8b:30:f2:
         b6:25:69:93:5a:46:70:83:b7:d1:51:df:5a:19:82:c7:49:a8:
         23:00:78:40:5a:10:7e:90:bd:d7:13:55:13:d5:00:14:81:bf:
         22:34:98:22:da:86:85:bb:75:aa:03:f1:8c:7c:4c:7e:b6:dc:
         ab:2a:4d:3f:4a:f1:1a:ad:e9:f6:e8:11:9d:94:b7:e4:fd:93:
         34:89:a9:c8:c7:8a:2f:01:db:33:80:fd:a8:85:5a:45:c0:91:
         5b:be:18:cc
-----BEGIN X509 CRL-----
MIIB5DCBzQIBATANBgkqhkiG9w0BAQsFADB0MRcwFQYDVQQDEw5LZXJuZWwgVGVz
dCBDQTEPMA0GA1UECxMGS2VybmVsMRAwDgYDVQQKEwdNb25nb0RCMRYwFAYDVQQH
Ew1OZXcgWW9yayBDaXR5MREwDwYDVQQIEwhOZXcgWW9yazELMAkGA1UEBhMCVVMX
DTE0MDcyMTE5NDU1NloXDTE0MDgyMDE5NDU1NlowFDASAgECFw0xNDA3MjExOTQ1
NTZaoA8wDTALBgNVHRQEBAICEAAwDQYJKoZIhvcNAQELBQADggEBAAlP8brxYU0z
ukRuFn+xozeBa6FMqviDJ7VQxtTqKnWguqg4YjtmVGu61xXYCEx3DBzbVqgNXKf6
SUb2IJMdea05FYy12MicxVSU6SMzPo+qraV+dNyV/G2L7CKgdKlB/PrfWRg32EnX
NyvxZZovG7l4ofPPkN+iTpphKbUPrhyGpSebeQXJMsU/hd4nlBWHirOHtAjHxZm+
EzxnAHhaJYsw8rYlaZNaRnCDt9FR31oZgsdJqCMAeEBaEH6QvdcTVRPVABSBvyI0
mCLahoW7daoD8Yx8TH623KsqTT9K8Rqt6fboEZ2Ut+T9kzSJqcjHii8B2zOA/aiF
WkXAkVu+GMw=
-----END X509 CRL-----
