Certificate:
    Data:
        Version: 3 (0x2)
        Serial Number: 8 (0x8)
        Signature Algorithm: sha1WithRSAEncryption
        Issuer: C=US, ST=New York, L=New York City, O=10Gen, OU=Kernel, CN=My Cert Authority/emailAddress=root@lazarus
        Validity
            Not Before: Nov  6 14:31:58 2013 GMT
            Not After : Mar 23 14:31:58 2041 GMT
        Subject: C=US, ST=New York, L=New York City, O=10Gen, CN=127.0.0.1
        Subject Public Key Info:
            Public Key Algorithm: rsaEncryption
                Public-Key: (2048 bit)
                Modulus:
                    00:aa:e1:a0:6c:09:dc:fd:d0:9f:0f:b6:77:40:60:
                    f9:01:f9:9e:55:20:fe:88:04:93:c9:ab:96:93:3a:
                    ed:7e:7d:ad:e4:eb:a7:e9:07:35:ef:6e:14:64:dd:
                    31:9b:e5:24:06:18:bb:60:67:e3:c5:49:8e:79:b6:
                    78:07:c1:64:3f:de:c1:7d:1b:a9:96:35:d5:f9:b8:
                    b4:5e:2a:34:b7:d0:19:ad:f6:8a:00:ef:8e:b0:d5:
                    36:1f:66:a0:7a:7d:cf:f0:98:3c:ee:0f:be:67:d2:
                    de:c3:e6:b8:79:2f:64:40:0c:39:15:97:8c:13:da:
                    1b:db:5c:bb:a3:43:0b:74:c7:46:55:9b:ea:d7:93:
                    d5:15:2f:d1:34:ac:a9:99:3b:01:f0:c1:d7:42:89:
                    24:bb:ab:60:99:c1:4d:9f:bf:9a:a3:92:3a:58:05:
                    e2:47:a6:8e:71:b2:0a:32:b0:c5:cc:a0:58:40:bf:
                    09:a7:76:f5:37:ce:90:71:e0:75:89:17:ea:fb:80:
                    24:a1:9d:6e:1b:7e:e3:44:52:d3:fe:e3:de:80:9a:
                    8e:c3:4f:8c:bb:b4:8c:d2:a9:a9:aa:af:90:ac:b4:
                    ee:6b:d2:c5:71:1e:08:7f:4c:b6:2a:5f:13:7a:e3:
                    29:f7:2e:bb:f7:c5:48:0a:4e:2e:1e:d4:2c:40:b3:
                    4c:19
                Exponent: 65537 (0x10001)
        X509v3 extensions:
            X509v3 Basic Constraints: 
                CA:FALSE
            Netscape Comment: 
                OpenSSL Generated Certificate
            X509v3 Subject Key Identifier: 
                0E:3F:54:C4:77:85:FF:93:58:A7:24:23:32:35:73:B0:BE:8C:C3:BB
            X509v3 Authority Key Identifier: 
                keyid:07:41:19:3A:9F:7E:C5:B7:22:4E:B7:BC:D5:DF:E4:FC:09:B8:64:16

    Signature Algorithm: sha1WithRSAEncryption
        4c:9d:31:81:b5:e9:6a:64:4c:1e:eb:91:7f:f1:66:74:46:13:
        19:cb:f2:3b:9a:41:f2:83:67:32:53:a6:cd:33:37:4c:92:a6:
        36:d4:f3:0b:56:a2:2b:66:f1:09:a7:06:36:b8:83:b7:31:70:
        fe:bf:af:b5:3d:59:f3:f2:18:48:c7:6c:b0:90:8c:24:47:30:
        53:8d:c5:3e:7c:7b:33:53:15:ec:bd:8a:83:ed:05:e8:8b:21:
        d7:65:39:69:95:c8:58:7d:4f:1b:32:51:85:2d:4d:8b:be:00:
        60:17:83:9b:2b:13:43:05:78:db:a4:2e:a2:cb:31:34:7e:b9:
        8a:72
-----BEGIN CERTIFICATE-----
MIIDZDCCAs2gAwIBAgIBCDANBgkqhkiG9w0BAQUFADCBkjELMAkGA1UEBhMCVVMx
ETAPBgNVBAgMCE5ldyBZb3JrMRYwFAYDVQQHDA1OZXcgWW9yayBDaXR5MQ4wDAYD
VQQKDAUxMEdlbjEPMA0GA1UECwwGS2VybmVsMRowGAYDVQQDDBFNeSBDZXJ0IEF1
dGhvcml0eTEbMBkGCSqGSIb3DQEJARYMcm9vdEBsYXphcnVzMB4XDTEzMTEwNjE0
MzE1OFoXDTQxMDMyMzE0MzE1OFowXDELMAkGA1UEBhMCVVMxETAPBgNVBAgMCE5l
dyBZb3JrMRYwFAYDVQQHDA1OZXcgWW9yayBDaXR5MQ4wDAYDVQQKDAUxMEdlbjES
MBAGA1UEAwwJMTI3LjAuMC4xMIIBIjANBgkqhkiG9w0BAQEFAAOCAQ8AMIIBCgKC
AQEAquGgbAnc/dCfD7Z3QGD5AfmeVSD+iASTyauWkzrtfn2t5Oun6Qc1724UZN0x
m+UkBhi7YGfjxUmOebZ4B8FkP97BfRupljXV+bi0Xio0t9AZrfaKAO+OsNU2H2ag
en3P8Jg87g++Z9Lew+a4eS9kQAw5FZeME9ob21y7o0MLdMdGVZvq15PVFS/RNKyp
mTsB8MHXQokku6tgmcFNn7+ao5I6WAXiR6aOcbIKMrDFzKBYQL8Jp3b1N86QceB1
iRfq+4AkoZ1uG37jRFLT/uPegJqOw0+Mu7SM0qmpqq+QrLTua9LFcR4If0y2Kl8T
euMp9y6798VICk4uHtQsQLNMGQIDAQABo3sweTAJBgNVHRMEAjAAMCwGCWCGSAGG
+EIBDQQfFh1PcGVuU1NMIEdlbmVyYXRlZCBDZXJ0aWZpY2F0ZTAdBgNVHQ4EFgQU
Dj9UxHeF/5NYpyQjMjVzsL6Mw7swHwYDVR0jBBgwFoAUB0EZOp9+xbciTre81d/k
/Am4ZBYwDQYJKoZIhvcNAQEFBQADgYEATJ0xgbXpamRMHuuRf/FmdEYTGcvyO5pB
8oNnMlOmzTM3TJKmNtTzC1aiK2bxCacGNriDtzFw/r+vtT1Z8/IYSMdssJCMJEcw
U43FPnx7M1MV7L2Kg+0F6Ish12U5aZXIWH1PGzJRhS1Ni74AYBeDmysTQwV426Qu
ossxNH65inI=
-----END CERTIFICATE-----
-----BEGIN PRIVATE KEY-----
MIIEvQIBADANBgkqhkiG9w0BAQEFAASCBKcwggSjAgEAAoIBAQCq4aBsCdz90J8P
tndAYPkB+Z5VIP6IBJPJq5aTOu1+fa3k66fpBzXvbhRk3TGb5SQGGLtgZ+PFSY55
tngHwWQ/3sF9G6mWNdX5uLReKjS30Bmt9ooA746w1TYfZqB6fc/wmDzuD75n0t7D
5rh5L2RADDkVl4wT2hvbXLujQwt0x0ZVm+rXk9UVL9E0rKmZOwHwwddCiSS7q2CZ
wU2fv5qjkjpYBeJHpo5xsgoysMXMoFhAvwmndvU3zpBx4HWJF+r7gCShnW4bfuNE
UtP+496Amo7DT4y7tIzSqamqr5CstO5r0sVxHgh/TLYqXxN64yn3Lrv3xUgKTi4e
1CxAs0wZAgMBAAECggEADtdh04BXzUOdTQQP/2tstRs1ATfIY4/iNhXNEiSAFAhe
Xg+Jmdeie5UX+FqtwFh6dH0ZaRoc0jm9Qhzy99l4F4QFUhRg+kbausGsCLGpun08
fbt36PTlc75Q4RFMxta+hKr0P8jmRKYv6tvTEdNn5ZgqLRHofKDo4nh/Y4KjMBUq
VIMUu+VO9Ol2GPlZVRBaJec0E1+HUyzaK5JVUIFh4atcrHyXxae+rY9o6G57BBEj
ZzlahfMI5aYj9HhXnB8RuhVBuIZBNSA41nxHmOs6JBQsatVML51RFIV4KPU+AyDR
bdYXHJehRIUF8RL92aHjGYsvXdSxVhuUBqMIQhOwAQKBgQDUtj+p+7SHpLyQIZpU
EQFK+42LDc6zF4uJVjq1d8fC2Hrmz8PLs0KcH36VWNbo48B3iFiPWIMID5xwLuIb
FkLOzJ8QrbILn0zcu/hplrCiy6PZas3rpLJ+X406wLQeCikOLhQkz+cuKuQmvWkK
eyqwBIIxg8t5dTtTAmu3w/DDgQKBgQDNqByxKduTgEND1+isUOt+L/ipR3SzXQ4m
ZsOKiSxyXxge0/CUxPxO6WeEVGQ7bGAr5yQD9ukvJnCo3phYcuRRj+RTMrTL73Kz
p/cyOUx2NMUIgURTsO+s3D0lC4+NmoDge0roeEDX+/lFNjqgRKJ+1LUimqbo5uNE
EupkyTh0mQKBgGw/81ZGSjFdnLic4TU3Ejlem0HQ3Qg3S0OxJl+DfZ2jHaiowzO/
Hn7laD4I4BXVEfXC5Y7NtKE9kJdmxJqUUZt8dta+DoXro+oRnvHdRjcS+2eB+xmY
z12QswbbWs6OzSXyPT4er7/HBCTS78nttGOvZ7JbKAm/p1kvOjJi/PwBAoGAE7Tw
Sum/6Lp5t56Q5TI73rOqGE6ImEdqe7ONOVE7uRnzrcCRZTAbHVSwXrXXhPo1nP9h
LCAU6De+w+/QmWkpB8fKEU7ilEg1rZGC1oU3FnyoBNCeQ4bI8L+J/GrHLsKHZvtp
ii07yXaTxFYV+BWbnJu1X8OCCv9U98j4PQArMMECgYEAm6uLN647vb+ZhzNBMtsX
1wnMSgzbgGpgjhWwk6dNmw8YJNKg9CFa8sQ8N7yKXWBEF/RkU0kfzZL8iddHEb/k
Ti1BlwrEzFfIQLlBfv47tYWOj8ZxN0ujlzUoN2VAC25LZhjcQCo3ftBk2lkrmllu
MxjxBfRk/teUdRl80oi5R0w=
-----END PRIVATE KEY-----
