-----BEGIN PRIVATE KEY-----
MIIEvwIBADANBgkqhkiG9w0BAQEFAASCBKkwggSlAgEAAoIBAQDIFYKNonJfhIJu
bgg+46we/wQfbmpcqDyRSTPDV4yMZ+0QW+dFDh1gBrTb5juVx4mTWjTyy48/FARi
naq/spbant/O7GtTswu71+ahGC5LOS8LIFWZonzKU6H8y13JDr4EtpNtLAKWbkh6
3WP1CUiOqB9Q0zX//IySMK3pmZq1tQQST9/a8u0Ip9tUDQvqDxr1E/IJRzViFUB1
zR2W/JAnFDbH348hvSZN5JkelywPRXnX2BNRXO+g8jEfSkAC7263Hb23osgG7/Ev
8SH6F3gFRuBOlMA1w+SttLXRB7YAAws7uO0K9W/43mAZ+QbWz+C0ncaZBGFEu2pE
/RBcARnPAgMBAAECggEBAK7AEqlPYyNHoX9/fJYo1RCxXFFzZ1QL3/Jog9wtn+SV
dDigfAoU/NT8poOUvx/fCap309zmqvLFsdrLp/ELsrO4pPKeDFMrAqmKNLUoYG50
wECwefLYNrOjfcxDdmL/DDkjmPl1wcDPC2C78ex2sjdeYRN/lR9B3Shlec+Xx8bA
ijkUB89TfqKoch1RepCUC3EBzQaQHj3OSOj6PDaJG+O4YEHdTyP+GjNDw6TW7FNT
lJpYixhyl+kHLA3QtP7ZLsQSZ2fGUVdVQpHprFX0BufPVgrgTUGGJwR4qciAhuo1
CXg8pFu4OFPXJboG4N/JHerdDi2ZXD9C+9IOran/UakCgYEA43VMv9UPZqUEtMvk
hbcvr3EyK2sItAC30yoOjhBsQ3btthcZN2US3jK4QIBQtBlr07B9fQh9pSstQm1P
NnrAt8UT8DSRTysJe8ibbm7rKZUQBHnCDgrIBPgMKbIi2OTyQT4okq8uX+8x42zN
Vja7DTRJ0iGqZkqswV7TA4QHc/sCgYEA4TDctiT+VCPonREiVtyeSq2SwYpOIzeZ
P2A0jp5miJ/ekUhG/3eD4CstB+abJ3fViyrJvnTbHvQYDZB3B0w2+PiycbtFRrle
unZdnK6ZEZUEZ8dS1PANf1oQQ023ByTJ+So4lkCVFSCP0N/eMPt9ZgBzeOgdFFHM
GHXXHSSOtT0CgYBKf4vQtN7jdp7w/GrvpM0YgFG3SMpD8oxCvF6iBxz+h8BZyHz4
2MDyR9hzP9Ou+TiI0CB5yEMmytp7DERKiq/+QK1EGmORc34ardzCsc+SAgGKBbsa
UEus3PVW3sJtGaeC2PH/ASOGRlinrWYfm7NuIrce/OnLsR+eAgnI+ABc6wKBgQCZ
Vr5TwSj1fmYc3df2MdAPpdWyuEywqmFNyGLBYpcLHWFeqErAFk/US1IkeSDZZT4h
v4cUi1nR4ACo6+BBNeKQ8jgAPbbUi9E3QvZHhJRyZnhTemSq3rMyLs+4JKkm0iQ9
6EQT+/IIKt4DKw2PaRBgbpoykEuM1I4XcdaC36vVOQKBgQC3RQGZvehpTdGJmqPd
o5+VQO+J/74ey07ZF3HMYgM4JyleD+Izjzd66QG4hepiqZAaLmCnq2THztJvNE6V
Ly1yxYg8sBitncLcirCGDkoMtKm1L4JrbaxUZY35OvTWRfD8FuCWAGR0QXO65owh
I8vHlFlEm2s/1Ipp2v/qQVNoIA==
-----END PRIVATE KEY-----
Certificate:
    Data:
        Version: 3 (0x2)
        Serial Number: 6 (0x6)
        Signature Algorithm: sha256WithRSAEncryption
        Issuer: CN=Kernel Test CA, OU=Kernel, O=MongoDB, L=New York City, ST=New York, C=US
        Validity
            Not Before: May 13 14:55:25 2019 GMT
            Not After : May 10 14:55:25 2029 GMT
        Subject: C=US, ST=New York, L=New York City, O=MongoDB, OU=Kernel, CN=santesthostname.com
        Subject Public Key Info:
            Public Key Algorithm: rsaEncryption
                RSA Public-Key: (2048 bit)
                Modulus:
                    00:c8:15:82:8d:a2:72:5f:84:82:6e:6e:08:3e:e3:
                    ac:1e:ff:04:1f:6e:6a:5c:a8:3c:91:49:33:c3:57:
                    8c:8c:67:ed:10:5b:e7:45:0e:1d:60:06:b4:db:e6:
                    3b:95:c7:89:93:5a:34:f2:cb:8f:3f:14:04:62:9d:
                    aa:bf:b2:96:da:9e:df:ce:ec:6b:53:b3:0b:bb:d7:
                    e6:a1:18:2e:4b:39:2f:0b:20:55:99:a2:7c:ca:53:
                    a1:fc:cb:5d:c9:0e:be:04:b6:93:6d:2c:02:96:6e:
                    48:7a:dd:63:f5:09:48:8e:a8:1f:50:d3:35:ff:fc:
                    8c:92:30:ad:e9:99:9a:b5:b5:04:12:4f:df:da:f2:
                    ed:08:a7:db:54:0d:0b:ea:0f:1a:f5:13:f2:09:47:
                    35:62:15:40:75:cd:1d:96:fc:90:27:14:36:c7:df:
                    8f:21:bd:26:4d:e4:99:1e:97:2c:0f:45:79:d7:d8:
                    13:51:5c:ef:a0:f2:31:1f:4a:40:02:ef:6e:b7:1d:
                    bd:b7:a2:c8:06:ef:f1:2f:f1:21:fa:17:78:05:46:
                    e0:4e:94:c0:35:c3:e4:ad:b4:b5:d1:07:b6:00:03:
                    0b:3b:b8:ed:0a:f5:6f:f8:de:60:19:f9:06:d6:cf:
                    e0:b4:9d:c6:99:04:61:44:bb:6a:44:fd:10:5c:01:
                    19:cf
                Exponent: 65537 (0x10001)
        X509v3 extensions:
            X509v3 Basic Constraints: 
                CA:FALSE
            X509v3 Subject Alternative Name: 
                DNS:*.example.com, DNS:127.0.0.1, DNS:morefun!, DNS:localhost
            X509v3 Subject Key Identifier: 
                D5:F5:A8:F8:D3:85:48:B2:99:95:40:74:26:FD:69:D3:60:55:14:AF
            X509v3 Key Usage: 
                Digital Signature, Key Encipherment
            X509v3 Extended Key Usage: 
                TLS Web Server Authentication
    Signature Algorithm: sha256WithRSAEncryption
         1b:c8:9c:5e:e9:5f:85:ba:c7:3c:13:5f:11:7f:4d:fa:64:1d:
         77:b0:6f:c8:b7:e4:31:16:d4:e6:07:5d:1e:16:92:03:b2:cb:
         0e:82:9c:df:c9:c8:54:c3:6a:2c:a1:b8:7d:32:02:19:67:1c:
         b6:1c:52:c1:e2:27:42:5f:06:b4:95:bf:21:af:9f:38:47:5d:
         66:eb:26:b4:c0:0c:ec:cc:46:86:65:e3:a7:1d:58:22:eb:07:
         fb:ba:82:a7:9e:5e:91:91:1e:9a:a7:eb:11:dd:bd:60:4f:38:
         82:63:c8:9c:26:c9:f8:e6:9b:6d:37:a0:14:2f:20:34:94:0a:
         1c:ea:04:95:22:97:9d:13:9b:df:2d:36:3b:e0:05:9a:4f:dc:
         18:82:78:a4:be:0f:01:43:14:d4:8b:1c:b0:9a:c4:43:72:19:
         b5:9d:b6:bf:2c:d1:0a:20:14:a9:da:d6:81:59:c8:3f:45:24:
         00:39:10:30:34:7f:85:0b:02:9d:42:04:32:74:bf:c0:fd:34:
         76:37:cc:f0:a1:45:7c:13:d0:f2:d3:c6:92:fa:49:ab:89:c9:
         60:fb:6a:62:cb:8c:55:e4:30:8c:e0:f7:4e:46:f4:41:e2:5d:
         b0:8b:ba:f6:16:69:c0:60:a9:72:d3:9e:7a:9c:fb:ef:e2:70:
         0a:fd:2d:a0
-----BEGIN CERTIFICATE-----
MIID8jCCAtqgAwIBAgIBBjANBgkqhkiG9w0BAQsFADB0MRcwFQYDVQQDEw5LZXJu
ZWwgVGVzdCBDQTEPMA0GA1UECxMGS2VybmVsMRAwDgYDVQQKEwdNb25nb0RCMRYw
FAYDVQQHEw1OZXcgWW9yayBDaXR5MREwDwYDVQQIEwhOZXcgWW9yazELMAkGA1UE
BhMCVVMwHhcNMTkwNTEzMTQ1NTI1WhcNMjkwNTEwMTQ1NTI1WjB5MQswCQYDVQQG
EwJVUzERMA8GA1UECAwITmV3IFlvcmsxFjAUBgNVBAcMDU5ldyBZb3JrIENpdHkx
EDAOBgNVBAoMB01vbmdvREIxDzANBgNVBAsMBktlcm5lbDEcMBoGA1UEAwwTc2Fu
dGVzdGhvc3RuYW1lLmNvbTCCASIwDQYJKoZIhvcNAQEBBQADggEPADCCAQoCggEB
AMgVgo2icl+Egm5uCD7jrB7/BB9ualyoPJFJM8NXjIxn7RBb50UOHWAGtNvmO5XH
iZNaNPLLjz8UBGKdqr+yltqe387sa1OzC7vX5qEYLks5LwsgVZmifMpTofzLXckO
vgS2k20sApZuSHrdY/UJSI6oH1DTNf/8jJIwremZmrW1BBJP39ry7Qin21QNC+oP
GvUT8glHNWIVQHXNHZb8kCcUNsffjyG9Jk3kmR6XLA9FedfYE1Fc76DyMR9KQALv
brcdvbeiyAbv8S/xIfoXeAVG4E6UwDXD5K20tdEHtgADCzu47Qr1b/jeYBn5BtbP
4LSdxpkEYUS7akT9EFwBGc8CAwEAAaOBiTCBhjAJBgNVHRMEAjAAMDgGA1UdEQQx
MC+CDSouZXhhbXBsZS5jb22CCTEyNy4wLjAuMYIIbW9yZWZ1biGCCWxvY2FsaG9z
dDAdBgNVHQ4EFgQU1fWo+NOFSLKZlUB0Jv1p02BVFK8wCwYDVR0PBAQDAgWgMBMG
A1UdJQQMMAoGCCsGAQUFBwMBMA0GCSqGSIb3DQEBCwUAA4IBAQAbyJxe6V+Fusc8
E18Rf036ZB13sG/It+QxFtTmB10eFpIDsssOgpzfychUw2osobh9MgIZZxy2HFLB
4idCXwa0lb8hr584R11m6ya0wAzszEaGZeOnHVgi6wf7uoKnnl6RkR6ap+sR3b1g
TziCY8icJsn45pttN6AULyA0lAoc6gSVIpedE5vfLTY74AWaT9wYgnikvg8BQxTU
ixywmsRDchm1nba/LNEKIBSp2taBWcg/RSQAORAwNH+FCwKdQgQydL/A/TR2N8zw
oUV8E9Dy08aS+kmriclg+2piy4xV5DCM4PdORvRB4l2wi7r2FmnAYKly0556nPvv
4nAK/S2g
-----END CERTIFICATE-----
