-----BEGIN PRIVATE KEY-----
MIIEvAIBADANBgkqhkiG9w0BAQEFAASCBKYwggSiAgEAAoIBAQCRzOZXV5+ob+Me
iwWYxwNxpDCCIG4IyZJgk0zDVsNtQsTdtQ9GVtBTUJImSmxy1vxeTc1JD/pAGUcZ
e8Ecy1T5YD6S6qlR1t+kvwlrNyJNEfjeU/3vBMubQH2a8E8Orm3YAhhWlPVacd0j
R4L+gL5vByrJaIwLTfpq4Q7N+3XS4X47LT/V5PeV9T1c+nbF2BZfoEq2+r/7P2Nu
37mhH2jsFhZgcJd9kKUBJH3mhOD5jXOaIv/E+MoSSV9fZ5EeYcz6Qkv7eeA7SjwG
zDQT8xlmvWVf+taQ+DUuKFg7z/AXOPymPNTaGsO45xhMeygEdCedGexx9SKZwLQW
pwU0/uuxAgMBAAECggEAOa17OfY5/OI2UPDiR+wC2sP/RJsbrHJBa98ZsPTz3pdZ
VfO4lTTmuO7YwjkS6eNOdugEW/DsKMtXKyef34o4lWaTmn8meG+ujXfdfAKVmTOQ
5jMH87RL76D1j4OdYstyPM+nXSkUXrFIsBosIg5AR5/oN0EalaZFeF6MAsSFeeSN
tYcfJBopdYX1zRXAWqQ6PijZXq8VU48SsCfUSOSFF4p4i+BtzuAqHRmQyagef8VI
doWES633ENhVLSvZqzk/8RWScHn6w0Uz8Ge9ltI20X37OfEK2Luo5lK1aq8xnoo6
5PZ091H8/0q9UfeBZ6c4xABn1KE39b5TQqE9CjGZoQKBgQDCGkOkHgFzUW9J5Tx8
vY0eUkSiOm5h4EcgS0KErJe0HO//33LI6tmQIoaW/mX8kunIJPOX2KDAuoqm3mII
WarEWZWJxfGH2DbDRNvgMQhkqoQy6sO37Ry2Wg8ZvhvF2T08WLoz/2nO+tPWh9To
/JyxnSk+hUh/tVMO+Or7RrUC/QKBgQDAS3FQP0WNeTzeU5ZEmVH4j9Ng1/ChdhDT
tLOJv4lxvhwxauw20AjZsMiefyDsvGO4xSq3rPfks4W04AqU4iakC48AmBzwyzDJ
S79Ar28zzNLzsqZ5SbhdzyVGBW3llEQilFCqUOV744BSaMBcJfOyejYd6HoxWTzq
XWEKeDnLxQKBgE4cz7fOM3s6/HRaglsY1R+sr94xcZaF8Vm3r89AvdRICPWJ8OGW
UXPF0TAWtOhOHzLiW/1xuk+VQpMgz4bYvvZBrwJA3JB0nKU8ote4I86PKKBtBdKQ
44sm9wi/DuIyKIiOlHC0ito26uVcyHvynQSFYMG+VYy/ZeuSlM4GiHXpAoGAVQpI
L3v7z2gZgh0nLGk9thYtHfwBn/Yt1OJqL/Xz28h+gWBO3KK99z/WSTnhnrBlzZXs
oVQuQQcfj3ExXMxy2EOAV3vt+JNznOIRz5KGNDtV445TTvpKPbpZOpE2G7ypMT20
Os4R3usqmcdXoqjqEDk565ofR+m2JdNsEgw/Sx0CgYAlvd1tACLh9uWmAbKB9ade
PGyUcEbEPbWGMexvu2Oo0hcpdncvGdtVQbgTqLQRPTC8IDeZrlq6tvxgml2W1DiV
+PnhiIOCxXxgwBleKsa2Veqk7UXg3m1E5KO+Hf4hA1Eh63+hqfTSwTPtdHh7URlV
PqAq4twgWQ8UZy7c/5vVrQ==
-----END PRIVATE KEY-----
Certificate:
    Data:
        Version: 3 (0x2)
        Serial Number: 5 (0x5)
        Signature Algorithm: sha256WithRSAEncryption
        Issuer: CN=Kernel Test CA, OU=Kernel, O=MongoDB, L=New York City, ST=New York, C=US
        Validity
            Not Before: May 13 14:54:59 2019 GMT
            Not After : May 10 14:54:59 2029 GMT
        Subject: C=US, ST=New York, L=New York City, O=MongoDB, OU=Kernel, CN=127.0.0.1
        Subject Public Key Info:
            Public Key Algorithm: rsaEncryption
                RSA Public-Key: (2048 bit)
                Modulus:
                    00:91:cc:e6:57:57:9f:a8:6f:e3:1e:8b:05:98:c7:
                    03:71:a4:30:82:20:6e:08:c9:92:60:93:4c:c3:56:
                    c3:6d:42:c4:dd:b5:0f:46:56:d0:53:50:92:26:4a:
                    6c:72:d6:fc:5e:4d:cd:49:0f:fa:40:19:47:19:7b:
                    c1:1c:cb:54:f9:60:3e:92:ea:a9:51:d6:df:a4:bf:
                    09:6b:37:22:4d:11:f8:de:53:fd:ef:04:cb:9b:40:
                    7d:9a:f0:4f:0e:ae:6d:d8:02:18:56:94:f5:5a:71:
                    dd:23:47:82:fe:80:be:6f:07:2a:c9:68:8c:0b:4d:
                    fa:6a:e1:0e:cd:fb:75:d2:e1:7e:3b:2d:3f:d5:e4:
                    f7:95:f5:3d:5c:fa:76:c5:d8:16:5f:a0:4a:b6:fa:
                    bf:fb:3f:63:6e:df:b9:a1:1f:68:ec:16:16:60:70:
                    97:7d:90:a5:01:24:7d:e6:84:e0:f9:8d:73:9a:22:
                    ff:c4:f8:ca:12:49:5f:5f:67:91:1e:61:cc:fa:42:
                    4b:fb:79:e0:3b:4a:3c:06:cc:34:13:f3:19:66:bd:
                    65:5f:fa:d6:90:f8:35:2e:28:58:3b:cf:f0:17:38:
                    fc:a6:3c:d4:da:1a:c3:b8:e7:18:4c:7b:28:04:74:
                    27:9d:19:ec:71:f5:22:99:c0:b4:16:a7:05:34:fe:
                    eb:b1
                Exponent: 65537 (0x10001)
        X509v3 extensions:
            X509v3 Basic Constraints: 
                CA:FALSE
            X509v3 Subject Alternative Name: 
                DNS:localhost, DNS:127.0.0.1
            X509v3 Subject Key Identifier: 
                74:B6:E6:1F:C2:00:FD:0B:E9:23:64:B5:F9:55:6F:5C:83:13:74:45
            X509v3 Key Usage: 
                Digital Signature, Key Encipherment
            X509v3 Extended Key Usage: 
                TLS Web Server Authentication
    Signature Algorithm: sha256WithRSAEncryption
         4e:b6:51:b9:5b:c5:27:a3:3c:c9:ac:80:25:4f:9b:d0:82:65:
         55:be:ec:f3:a8:7a:78:5f:88:1e:6f:f7:9e:55:ac:6f:5b:93:
         48:6e:ae:1c:72:f7:14:2a:66:4e:28:2f:70:ba:29:63:47:4c:
         1b:52:95:92:76:2a:ed:d6:fb:2a:8e:1b:18:91:3b:b5:3b:34:
         d2:1b:8d:3d:7f:59:44:b1:e6:f4:6a:92:16:39:df:9a:97:7b:
         e6:58:8b:a4:cd:6b:8d:9b:4a:f5:5b:4a:96:52:66:d7:f5:36:
         21:a7:b6:f1:4e:c8:f2:0f:15:ee:bf:53:8a:13:50:5e:b6:76:
         83:7f:f3:7d:59:b7:d3:6a:85:ee:cf:f8:b4:b1:41:91:57:c3:
         37:f8:81:9c:16:24:49:6f:4f:3e:6c:ee:b1:5b:8c:bb:29:1e:
         52:a6:c9:c6:67:aa:77:b9:c6:fc:43:f9:31:78:57:2c:84:c0:
         61:ca:8e:64:2b:b7:1d:0b:c8:35:e0:d5:62:0a:64:4e:ca:30:
         e3:b4:d1:65:65:fa:3b:b5:2d:41:f5:f0:83:19:ce:4a:90:61:
         7c:8d:b5:f4:b6:95:67:16:39:72:da:67:43:7e:a1:02:ea:d2:
         de:17:3b:4a:9c:a5:f8:72:c2:6a:8c:31:e6:c3:87:23:a6:6b:
         d8:b4:b3:83
-----BEGIN CERTIFICATE-----
MIIDzTCCArWgAwIBAgIBBTANBgkqhkiG9w0BAQsFADB0MRcwFQYDVQQDEw5LZXJu
ZWwgVGVzdCBDQTEPMA0GA1UECxMGS2VybmVsMRAwDgYDVQQKEwdNb25nb0RCMRYw
FAYDVQQHEw1OZXcgWW9yayBDaXR5MREwDwYDVQQIEwhOZXcgWW9yazELMAkGA1UE
BhMCVVMwHhcNMTkwNTEzMTQ1NDU5WhcNMjkwNTEwMTQ1NDU5WjBvMQswCQYDVQQG
EwJVUzERMA8GA1UECAwITmV3IFlvcmsxFjAUBgNVBAcMDU5ldyBZb3JrIENpdHkx
EDAOBgNVBAoMB01vbmdvREIxDzANBgNVBAsMBktlcm5lbDESMBAGA1UEAwwJMTI3
LjAuMC4xMIIBIjANBgkqhkiG9w0BAQEFAAOCAQ8AMIIBCgKCAQEAkczmV1efqG/j
HosFmMcDcaQwgiBuCMmSYJNMw1bDbULE3bUPRlbQU1CSJkpsctb8Xk3NSQ/6QBlH
GXvBHMtU+WA+kuqpUdbfpL8JazciTRH43lP97wTLm0B9mvBPDq5t2AIYVpT1WnHd
I0eC/oC+bwcqyWiMC036auEOzft10uF+Oy0/1eT3lfU9XPp2xdgWX6BKtvq/+z9j
bt+5oR9o7BYWYHCXfZClASR95oTg+Y1zmiL/xPjKEklfX2eRHmHM+kJL+3ngO0o8
Bsw0E/MZZr1lX/rWkPg1LihYO8/wFzj8pjzU2hrDuOcYTHsoBHQnnRnscfUimcC0
FqcFNP7rsQIDAQABo28wbTAJBgNVHRMEAjAAMB8GA1UdEQQYMBaCCWxvY2FsaG9z
dIIJMTI3LjAuMC4xMB0GA1UdDgQWBBR0tuYfwgD9C+kjZLX5VW9cgxN0RTALBgNV
HQ8EBAMCBaAwEwYDVR0lBAwwCgYIKwYBBQUHAwEwDQYJKoZIhvcNAQELBQADggEB
AE62UblbxSejPMmsgCVPm9CCZVW+7POoenhfiB5v955VrG9bk0hurhxy9xQqZk4o
L3C6KWNHTBtSlZJ2Ku3W+yqOGxiRO7U7NNIbjT1/WUSx5vRqkhY535qXe+ZYi6TN
a42bSvVbSpZSZtf1NiGntvFOyPIPFe6/U4oTUF62doN/831Zt9Nqhe7P+LSxQZFX
wzf4gZwWJElvTz5s7rFbjLspHlKmycZnqne5xvxD+TF4VyyEwGHKjmQrtx0LyDXg
1WIKZE7KMOO00WVl+ju1LUH18IMZzkqQYXyNtfS2lWcWOXLaZ0N+oQLq0t4XO0qc
pfhywmqMMebDhyOma9i0s4M=
-----END CERTIFICATE-----
