-----BEGIN RSA PRIVATE KEY-----
Proc-Type: 4,ENCRYPTED
DEK-Info: AES-256-CBC,CA3A35762D730A5C72B1F25CBBD5AC25

QkFhwdG6X6kb58wz4lb3ezLsMAEhdRJCxCfk6OivL4zLPpL7eL1SMuHrs0DpSxpQ
27FJ0M6fu2XaMeLf2GlCyY37z7aCRn0Cxyk90rBHztKCBLBlMGCfjFsPTDctrmJE
tmtVSYSEJ4Ydb2EsUlXmRtSyCjzzKZ0Unt9FXziURVklqwCVKsWcPh/bEd4bxJyS
3ddlqZw48KSUcQKSo/xJ36Bn1t/FSpU3i4lkyo2bmbEkJl52MB7vtE9IkfMECRqY
lfWHepErG1p9/oIqdd2xDdKCt/M3KCcp99uFw0hVmTAaLv0G8ymyqVly8NJEyC8c
tYKR/4vr1KOClB4u4tH2F7THHwfvAIvqOqZIhiTRl+h4/pnXHBeldmkDy6yY0VgF
irOf+eb/JSUoe67gdQf4rQRaVuDe4PeU+CyldddLYEQiMr1FshZC1wtPH9kdP/OE
sRi1PND3dON9ovfIW4v+bS+0Oq8ycAtkmZYOSwqt9m67xKKURZebcoxVuPDHXrre
7CthjsWDB91y3YkMPCYlgtApGdCQZKf6nbVcYqp6SuRwO2MyvxOLo5/Oyi8JY6Uu
Npbonj83qmpoIyGVASKr9eR4a8kFQDOEMHjg37D7dWVEs4M6SGLJA9EmWFsbyfBc
ir2yBmIYKZU0a255QfF7zWTUnQQDthVXH3vp4a4QdShj2YGR8ctqExeeJ4JCrRWR
UB7T0IR+PCbKlFFMvdZTlS/vJZP6xvvzSFCqrkO3z5oqlEhNu4HagfteiSvcqYhv
bxWpX/pksTJuiVcz+G8srfCfotsQ9wVflSIHmyiiCsL5igr/IFATvyEqBWgvdfUR
4s+yY3OoOAihOqOdIb+j4I6Qlv0lAIFmoxoQj2JHjtFMoX6JRkb0hz17wvICJcrL
DE/OZ/WgbPufFbz6XFEu8H+wj0ITHX0Hp6CrJMKFZlJO4OgKAtNasOHl10blroUM
xZYc2H0fnmzjEVvTjiAcFZXyLpgwrRD0OVphPqBh1WNWjMDYDyd/6VIIy/g4/AtQ
+YWWomuiNdGefaG8j0+KjEOo7y19UFvuCE88UkAbjjwvsvRvNYWg5lDdyE7rpVnM
oOyVJGraM4+vECDtHTq0z0SVtE/wnIDO6azdy4mP2RMPLBsQ2UZ9jFtGRnq6rsQ6
2/RgjARHlomfEmsxgYMZxyetoqFl5iJbf+92aYcWwF0g3TpezkR9ZVYlUHHgmOap
aufSFv+yGjZlHYQyYGYNpjIxIpaBVyEO4AdvESfhBYRLGhpa2oRHHdseZHEgXc0r
uGseGIxEJisgm4l0p8xciVXrrt8H1Yuc0tmjMjy58eY8Ey8uJWu2J3Su1XbO2WXi
zBufXgvzgoyULDSTIijGMp/oYm/zwTFiBLX5+ti51clrFh5S8RLANvkSf+c/eRDH
7PVQOsapCE+4QtcJOO/OLbybHtSGe5Zy28tsq832FRfHvALG5V/KsyQtGsl+x7lZ
24oC1rwZJJej9MYBKYqc4gyBwcNvKeSOQgQcuwL+xkELGE4XkaFzgsW+YY4v/M4w
QhKtDvsHHiW0BaH6W5WSstwxWNbfF4JOuv0g6NpMIxYGllCupaUrm98Bfto45FF8
-----END RSA PRIVATE KEY-----
Certificate:
    Data:
        Version: 3 (0x2)
        Serial Number: 8 (0x8)
        Signature Algorithm: sha256WithRSAEncryption
        Issuer: CN=Kernel Test CA, OU=Kernel, O=MongoDB, L=New York City, ST=New York, C=US
        Validity
            Not Before: May  9 19:30:52 2019 GMT
            Not After : May  6 19:30:52 2029 GMT
        Subject: C=US, ST=New York, L=New York City, O=MongoDB, OU=Kernel, CN=server
        Subject Public Key Info:
            Public Key Algorithm: rsaEncryption
                RSA Public-Key: (2048 bit)
                Modulus:
                    00:d7:9e:63:d8:75:ed:e0:df:8c:8b:bd:1d:08:f3:
                    34:a3:b3:d9:ef:5f:0b:ca:a9:32:e4:a5:b3:2f:c7:
                    ee:6c:78:94:5f:46:6c:a1:a3:54:6e:b0:52:2f:e6:
                    2a:b6:27:a2:43:7e:42:8c:40:2a:47:9a:d6:1b:3e:
                    50:1e:04:34:40:48:87:f4:18:3b:71:91:1f:5b:d1:
                    dc:e1:fd:d5:61:c8:5c:4f:55:e5:fa:88:5d:d3:51:
                    ba:97:d4:d4:b7:4c:27:c6:61:8a:db:a1:02:99:d3:
                    c8:cc:49:72:f6:28:dd:9f:46:32:f8:51:89:01:38:
                    5b:1b:9e:67:75:27:6b:3c:dc:3a:5d:36:70:de:c9:
                    bc:81:d6:41:b7:65:b7:9f:ac:da:25:cf:29:91:6a:
                    f5:d4:54:1c:78:8d:fc:68:6a:74:47:14:72:1d:f3:
                    d1:9a:80:11:24:f2:be:a4:c1:0c:61:15:01:de:ee:
                    f0:8a:9a:24:79:77:5c:66:b2:75:86:39:ca:93:6e:
                    0a:32:d9:d5:32:03:69:61:81:5b:3f:34:e7:b5:9a:
                    fe:a1:ed:4b:06:3e:74:71:b3:e7:55:52:23:93:91:
                    c7:7a:08:c6:a4:33:5d:cf:27:2b:d8:b5:db:08:44:
                    c3:54:8d:e3:43:99:ef:b9:1b:4e:b6:51:a7:0d:8a:
                    1c:d5
                Exponent: 65537 (0x10001)
        X509v3 extensions:
            X509v3 Basic Constraints: 
                CA:FALSE
            X509v3 Key Usage: 
                Digital Signature, Key Encipherment
            X509v3 Extended Key Usage: 
                TLS Web Server Authentication
            X509v3 Subject Alternative Name: 
                DNS:localhost, DNS:127.0.0.1
            X509v3 Subject Key Identifier: 
                5C:78:7C:37:A4:38:82:F0:EA:E1:CA:CA:D8:F2:FB:00:09:92:47:09
            X509v3 Authority Key Identifier: 
                DirName:/CN=Kernel Test CA/OU=Kernel/O=MongoDB/L=New York City/ST=New York/C=US
                serial:01

    Signature Algorithm: sha256WithRSAEncryption
         0d:e1:de:62:dd:fc:a2:c6:05:22:53:f2:b2:83:ad:c6:9f:ae:
         db:08:49:b9:d8:c6:21:f2:ec:b1:56:fc:7f:24:0f:6b:1a:6f:
         34:73:6e:bf:7b:e0:d0:59:98:5e:a6:82:2f:87:df:64:1c:8d:
         45:82:95:6b:c0:76:28:d6:b5:1b:28:4b:1b:91:47:2f:29:0e:
         2b:89:2c:94:92:a9:ff:eb:3c:38:7b:79:fa:e3:6a:68:1c:ce:
         52:a5:18:96:9a:29:1c:78:a3:bd:46:98:e3:93:f9:c3:3a:3a:
         0a:a3:24:ab:22:a1:50:f5:79:53:ca:e6:fc:ba:c4:31:73:c4:
         3b:bf:ba:5d:86:f4:2b:25:0a:e9:57:99:13:48:94:0b:c0:a7:
         f1:b2:91:db:c4:32:24:50:7f:0b:5a:0a:8a:7d:22:13:c3:ee:
         05:20:a2:4a:4e:2d:f5:6c:7c:ec:7e:4f:23:61:9c:83:6c:35:
         52:8e:3b:9b:6f:4b:fd:22:26:e5:54:59:6e:47:86:5f:9a:f3:
         d8:98:0d:08:be:79:35:91:8d:60:f0:e6:c9:7c:1b:5f:20:86:
         2a:95:70:f9:e6:f7:ee:89:b1:e9:ef:fc:a8:e3:41:1a:28:c7:
         a2:0f:41:0d:b4:f1:9a:35:8e:b2:e4:2a:35:6a:ff:56:4c:16:
         9f:80:ec:83
-----BEGIN CERTIFICATE-----
MIIEVTCCAz2gAwIBAgIBCDANBgkqhkiG9w0BAQsFADB0MRcwFQYDVQQDEw5LZXJu
ZWwgVGVzdCBDQTEPMA0GA1UECxMGS2VybmVsMRAwDgYDVQQKEwdNb25nb0RCMRYw
FAYDVQQHEw1OZXcgWW9yayBDaXR5MREwDwYDVQQIEwhOZXcgWW9yazELMAkGA1UE
BhMCVVMwHhcNMTkwNTA5MTkzMDUyWhcNMjkwNTA2MTkzMDUyWjBsMQswCQYDVQQG
EwJVUzERMA8GA1UECBMITmV3IFlvcmsxFjAUBgNVBAcTDU5ldyBZb3JrIENpdHkx
EDAOBgNVBAoTB01vbmdvREIxDzANBgNVBAsTBktlcm5lbDEPMA0GA1UEAxMGc2Vy
dmVyMIIBIjANBgkqhkiG9w0BAQEFAAOCAQ8AMIIBCgKCAQEA155j2HXt4N+Mi70d
CPM0o7PZ718Lyqky5KWzL8fubHiUX0ZsoaNUbrBSL+YqtieiQ35CjEAqR5rWGz5Q
HgQ0QEiH9Bg7cZEfW9Hc4f3VYchcT1Xl+ohd01G6l9TUt0wnxmGK26ECmdPIzEly
9ijdn0Yy+FGJAThbG55ndSdrPNw6XTZw3sm8gdZBt2W3n6zaJc8pkWr11FQceI38
aGp0RxRyHfPRmoARJPK+pMEMYRUB3u7wipokeXdcZrJ1hjnKk24KMtnVMgNpYYFb
PzTntZr+oe1LBj50cbPnVVIjk5HHegjGpDNdzycr2LXbCETDVI3jQ5nvuRtOtlGn
DYoc1QIDAQABo4H5MIH2MAkGA1UdEwQCMAAwCwYDVR0PBAQDAgWgMBMGA1UdJQQM
MAoGCCsGAQUFBwMBMB8GA1UdEQQYMBaCCWxvY2FsaG9zdIIJMTI3LjAuMC4xMB0G
A1UdDgQWBBRceHw3pDiC8OrhysrY8vsACZJHCTCBhgYDVR0jBH8wfaF4pHYwdDEX
MBUGA1UEAxMOS2VybmVsIFRlc3QgQ0ExDzANBgNVBAsTBktlcm5lbDEQMA4GA1UE
ChMHTW9uZ29EQjEWMBQGA1UEBxMNTmV3IFlvcmsgQ2l0eTERMA8GA1UECBMITmV3
IFlvcmsxCzAJBgNVBAYTAlVTggEBMA0GCSqGSIb3DQEBCwUAA4IBAQAN4d5i3fyi
xgUiU/Kyg63Gn67bCEm52MYh8uyxVvx/JA9rGm80c26/e+DQWZhepoIvh99kHI1F
gpVrwHYo1rUbKEsbkUcvKQ4riSyUkqn/6zw4e3n642poHM5SpRiWmikceKO9Rpjj
k/nDOjoKoySrIqFQ9XlTyub8usQxc8Q7v7pdhvQrJQrpV5kTSJQLwKfxspHbxDIk
UH8LWgqKfSITw+4FIKJKTi31bHzsfk8jYZyDbDVSjjubb0v9IiblVFluR4ZfmvPY
mA0Ivnk1kY1g8ObJfBtfIIYqlXD55vfuibHp7/yo40EaKMeiD0ENtPGaNY6y5Co1
av9WTBafgOyD
-----END CERTIFICATE-----
