-----BEGIN PRIVATE KEY-----
MIIEvQIBADANBgkqhkiG9w0BAQEFAASCBKcwggSjAgEAAoIBAQCw9AqYTsI8akw5
8/f2eQ9bzYbUdp5ok9ip5DiN1cbrF1br7pREgHgkfXuVJ7vtgcdDVtZkvPqTYgOG
rUpU82gIn74V5hshvQFgFgwxzJFZsUnnmI7JWprhTdCZXdomE2T5OqtaUwKK2YTx
svtjwu96ijWcPendBD5SqDh9h/Zq5fa0ckXyKA4vnQtiJ90/6/2tX60zV+y1AEyu
BTa4xvobSD5TY4YVMwqBYQ/d4MSRJEaoxLgLjBtNhxiOQs9OTZGDzcjDrEygU/M5
8QOcQJd/QTvt4rPTB+enFn3goN67axJmy0u3qH0T/yfQI+UYnsrbWRc9ylrsgtYd
r1oGm8KvAgMBAAECggEAOur2wCGxIKaP/NfTnxhN2dZD52gbdFyNzntzrR4Z3lrm
ESZd7bUMy7GQPWh+dSU58JzwQ5h8oigHXodCcaid4gk2JFp6fDBPTevpYYdoegHC
xr8QA9EMMqpTI02Rfg4FF8rGFQwAk7S7RDLA60WTsSxlj0E6JeHs0l66eGmVzZ93
3A79SJZEtjX3E967WbBFLbJd+xvWv4TnLBV9rzy8rqrewtJER/j3PvBMrRjpiv2n
qXR8hK6qD/BjXgTYxhwfof3VPYkDdG4Brx/Mo9fHcJKMt9JVYAB0JJYJO+cF4rco
N6D5Av6+B3KXqlhbAmEbk01JFd1ohgUPnxEp8oaW6QKBgQDnWcrl2i5KKoaHgpjn
rUrGBIN6K++zH2mUIwoC9PaSj2zxoFQOfJYIva36PGxl9hi35p7OMcI3eMYHCxu9
P2G659i57gDFWGkJ9NxkjoRr0JcH5fMtQp7WRj+c4ne6vuZXQ9DBL70oWIeWZoeU
mfnVzNjmj0r/POpsByzIWxoexQKBgQDDzoffFXVkYGCEHB7M7cdY7nJn1Akd5J5N
oYikytwmIv29PBN0bP3Tt9sSMEhVIKIOt05geBt83ZU8GBLk7S6GZb0zNfA35fOX
Z1fw9SnoIFim55Qk6o9J19JFN+zXbXjP8I2XirnejjLLdlnifRIoVOSuLNTm6gNR
pigs2bAy4wKBgG3c9D9m9uh9fVlIqXgLkSCr8AvKZY/4cNjKMuzoi1daCPBNpN0k
SNNpz/6vRwK8dUyPlgZxFrvk/JVHryqVuMFbbE4POgp9S5RQ1YBjNXtFmRNFHc/2
fRtgTMEhwp3KHfR+3dl/5CIOuISxt9zXqg7fsnj6vzCqKuCWH6wdpy/JAoGBAJB4
u3GTIKmuHqh7IxKrQpHQZaNMJGnk/BRlYi/M6cBNwxAz2lrl7CahmkcCTuxYhpn7
EB5HoGhyCaFsVcyJX/GT8ZRucM6doSyN+Kn2CjSWYTLM3VabppuiXSfrSpns0N4E
LESq+9dE7h+HNGzTQWl2sb/9nhy+fzJoOW5WNBZnAoGAWZ32/+1CvZmWFADvCBws
5m1fOVpahJQgqvwY+MzwZJcwmq1D/BQj8XBIIR4s1qL6j/gMNnW8FMx1eSfB0Tdd
5KO+wpIVFrEYzMltSAQoA8m+f/9Femjsi/7UZAIYqDZQrq93aD4e5mUeoEAS2EG7
rAtXjDyW239JXThOyTxLgYo=
-----END PRIVATE KEY-----
Certificate:
    Data:
        Version: 3 (0x2)
        Serial Number: 1 (0x1)
        Signature Algorithm: sha256WithRSAEncryption
        Issuer: CN=Kernel Test CA, OU=Kernel, O=MongoDB, L=New York City, ST=New York, C=US
        Validity
            Not Before: May 13 14:39:33 2019 GMT
            Not After : May 10 14:39:33 2029 GMT
        Subject: C=US, ST=New York, L=New York City, O=MongoDB, OU=Kernel, CN=server
        Subject Public Key Info:
            Public Key Algorithm: rsaEncryption
                RSA Public-Key: (2048 bit)
                Modulus:
                    00:b0:f4:0a:98:4e:c2:3c:6a:4c:39:f3:f7:f6:79:
                    0f:5b:cd:86:d4:76:9e:68:93:d8:a9:e4:38:8d:d5:
                    c6:eb:17:56:eb:ee:94:44:80:78:24:7d:7b:95:27:
                    bb:ed:81:c7:43:56:d6:64:bc:fa:93:62:03:86:ad:
                    4a:54:f3:68:08:9f:be:15:e6:1b:21:bd:01:60:16:
                    0c:31:cc:91:59:b1:49:e7:98:8e:c9:5a:9a:e1:4d:
                    d0:99:5d:da:26:13:64:f9:3a:ab:5a:53:02:8a:d9:
                    84:f1:b2:fb:63:c2:ef:7a:8a:35:9c:3d:e9:dd:04:
                    3e:52:a8:38:7d:87:f6:6a:e5:f6:b4:72:45:f2:28:
                    0e:2f:9d:0b:62:27:dd:3f:eb:fd:ad:5f:ad:33:57:
                    ec:b5:00:4c:ae:05:36:b8:c6:fa:1b:48:3e:53:63:
                    86:15:33:0a:81:61:0f:dd:e0:c4:91:24:46:a8:c4:
                    b8:0b:8c:1b:4d:87:18:8e:42:cf:4e:4d:91:83:cd:
                    c8:c3:ac:4c:a0:53:f3:39:f1:03:9c:40:97:7f:41:
                    3b:ed:e2:b3:d3:07:e7:a7:16:7d:e0:a0:de:bb:6b:
                    12:66:cb:4b:b7:a8:7d:13:ff:27:d0:23:e5:18:9e:
                    ca:db:59:17:3d:ca:5a:ec:82:d6:1d:af:5a:06:9b:
                    c2:af
                Exponent: 65537 (0x10001)
        X509v3 extensions:
            X509v3 Basic Constraints: 
                CA:FALSE
            X509v3 Subject Alternative Name: 
                DNS:localhost, DNS:127.0.0.1
            X509v3 Subject Key Identifier: 
                7D:61:7F:88:97:FA:09:A9:93:23:91:4F:68:B2:F2:94:03:37:8A:2E
            X509v3 Key Usage: 
                Digital Signature, Key Encipherment
            X509v3 Extended Key Usage: 
                TLS Web Server Authentication, TLS Web Client Authentication
    Signature Algorithm: sha256WithRSAEncryption
         56:1e:67:3f:a4:2e:cc:e9:6f:56:0b:70:5e:96:9f:66:1a:9f:
         e6:b3:b8:d2:43:1d:77:6f:a7:b8:2e:8d:b0:3e:58:db:24:a2:
         f1:26:cd:eb:d9:b4:a0:9f:88:8b:48:02:a8:9d:aa:fc:96:e6:
         ac:6e:05:e2:7e:ab:1a:be:18:6d:cf:aa:53:7c:0d:aa:b3:15:
         ec:79:2c:56:46:b1:38:87:d0:d5:1c:6b:29:cb:97:6a:86:fa:
         1c:f5:c6:4d:5b:ea:0a:01:4f:d3:d0:cc:dd:27:43:ce:89:34:
         51:8f:6b:5b:9d:14:b1:5b:82:a8:ab:3a:75:11:b1:78:35:3b:
         f5:19:65:70:b4:89:aa:6c:20:cb:32:b1:80:5b:fe:c5:8b:93:
         90:b8:7c:18:9d:61:9f:4b:40:5d:20:89:4d:70:46:80:e6:a7:
         15:be:96:cf:93:59:c1:0f:f0:2a:bc:ed:b8:97:2b:df:2b:1d:
         df:29:67:2f:4a:d2:12:d5:85:03:66:8e:74:3a:e1:27:b0:b9:
         b7:69:59:3c:c0:42:90:d1:71:b3:2a:87:f2:23:47:6b:5e:5f:
         3c:3e:3e:cb:e7:e4:4e:f6:88:89:6d:af:ee:78:43:a2:15:78:
         37:7c:c0:94:45:08:0c:0b:2c:51:b7:b0:df:af:eb:38:fb:9f:
         6f:72:33:7f
-----BEGIN CERTIFICATE-----
MIID1DCCArygAwIBAgIBATANBgkqhkiG9w0BAQsFADB0MRcwFQYDVQQDEw5LZXJu
ZWwgVGVzdCBDQTEPMA0GA1UECxMGS2VybmVsMRAwDgYDVQQKEwdNb25nb0RCMRYw
FAYDVQQHEw1OZXcgWW9yayBDaXR5MREwDwYDVQQIEwhOZXcgWW9yazELMAkGA1UE
BhMCVVMwHhcNMTkwNTEzMTQzOTMzWhcNMjkwNTEwMTQzOTMzWjBsMQswCQYDVQQG
EwJVUzERMA8GA1UECAwITmV3IFlvcmsxFjAUBgNVBAcMDU5ldyBZb3JrIENpdHkx
EDAOBgNVBAoMB01vbmdvREIxDzANBgNVBAsMBktlcm5lbDEPMA0GA1UEAwwGc2Vy
dmVyMIIBIjANBgkqhkiG9w0BAQEFAAOCAQ8AMIIBCgKCAQEAsPQKmE7CPGpMOfP3
9nkPW82G1HaeaJPYqeQ4jdXG6xdW6+6URIB4JH17lSe77YHHQ1bWZLz6k2IDhq1K
VPNoCJ++FeYbIb0BYBYMMcyRWbFJ55iOyVqa4U3QmV3aJhNk+TqrWlMCitmE8bL7
Y8Lveoo1nD3p3QQ+Uqg4fYf2auX2tHJF8igOL50LYifdP+v9rV+tM1fstQBMrgU2
uMb6G0g+U2OGFTMKgWEP3eDEkSRGqMS4C4wbTYcYjkLPTk2Rg83Iw6xMoFPzOfED
nECXf0E77eKz0wfnpxZ94KDeu2sSZstLt6h9E/8n0CPlGJ7K21kXPcpa7ILWHa9a
BpvCrwIDAQABo3kwdzAJBgNVHRMEAjAAMB8GA1UdEQQYMBaCCWxvY2FsaG9zdIIJ
MTI3LjAuMC4xMB0GA1UdDgQWBBR9YX+Il/oJqZMjkU9osvKUAzeKLjALBgNVHQ8E
BAMCBaAwHQYDVR0lBBYwFAYIKwYBBQUHAwEGCCsGAQUFBwMCMA0GCSqGSIb3DQEB
CwUAA4IBAQBWHmc/pC7M6W9WC3Belp9mGp/ms7jSQx13b6e4Lo2wPljbJKLxJs3r
2bSgn4iLSAKonar8luasbgXifqsavhhtz6pTfA2qsxXseSxWRrE4h9DVHGspy5dq
hvoc9cZNW+oKAU/T0MzdJ0POiTRRj2tbnRSxW4Koqzp1EbF4NTv1GWVwtImqbCDL
MrGAW/7Fi5OQuHwYnWGfS0BdIIlNcEaA5qcVvpbPk1nBD/AqvO24lyvfKx3fKWcv
StIS1YUDZo50OuEnsLm3aVk8wEKQ0XGzKofyI0drXl88Pj7L5+RO9oiJba/ueEOi
FXg3fMCURQgMCyxRt7Dfr+s4+59vcjN/
-----END CERTIFICATE-----
