Certificate Revocation List (CRL):
        Version 2 (0x1)
    Signature Algorithm: sha256WithRSAEncryption
        Issuer: /CN=Kernel Test CA/OU=Kernel/O=MongoDB/L=New York City/ST=New York/C=US
        Last Update: Jul 21 19:45:56 2014 GMT
        Next Update: Jul 21 20:45:56 2014 GMT
        CRL extensions:
            X509v3 CRL Number: 
                4096
No Revoked Certificates.
    Signature Algorithm: sha256WithRSAEncryption
         14:e8:6d:51:fc:0e:66:08:22:b2:4d:fb:da:7a:5f:4d:d1:a0:
         80:f0:18:f3:c5:ca:c7:05:6c:70:59:fa:d5:96:68:fa:c7:1d:
         7e:fb:53:3b:4a:8f:ed:bb:51:04:e8:fb:db:d7:b8:96:d9:e2:
         8d:bb:54:cc:11:60:c8:20:ea:81:28:5f:e1:eb:d6:8c:94:bf:
         42:e0:7f:a3:13:0c:76:05:f2:f0:34:98:a3:e8:64:74:4c:cb:
         bf:39:bb:fa:d5:2d:72:02:d1:fa:56:15:59:12:b7:ff:a3:cc:
         c9:d6:14:ca:4a:1e:0b:b4:47:cf:58:b0:e5:24:d2:21:71:0d:
         2d:09:77:5c:2f:ef:40:f8:74:90:03:cc:37:2e:ea:6a:25:59:
         c0:bf:48:90:00:55:9c:db:bf:1f:f0:7b:b6:5a:90:94:b6:8d:
         7c:7d:bb:2d:11:5f:0c:f5:4a:9b:c5:ed:ab:e3:fd:35:c8:76:
         3b:2e:41:cb:df:76:b5:f4:e9:05:72:f6:56:7a:fc:34:07:d6:
         a2:55:eb:7c:58:33:5b:9d:3e:b2:03:89:01:c6:d1:54:75:1a:
         5c:73:3f:5e:2e:fd:3b:38:ed:d4:e1:fa:ec:ff:84:f0:55:ee:
         83:e0:f0:13:97:e7:f0:55:8c:00:a3:1a:31:e4:31:9e:68:d0:
         6d:3e:81:b0
-----BEGIN X509 CRL-----
MIIBzjCBtwIBATANBgkqhkiG9w0BAQsFADB0MRcwFQYDVQQDEw5LZXJuZWwgVGVz
dCBDQTEPMA0GA1UECxMGS2VybmVsMRAwDgYDVQQKEwdNb25nb0RCMRYwFAYDVQQH
Ew1OZXcgWW9yayBDaXR5MREwDwYDVQQIEwhOZXcgWW9yazELMAkGA1UEBhMCVVMX
DTE0MDcyMTE5NDU1NloXDTE0MDcyMTIwNDU1NlqgDzANMAsGA1UdFAQEAgIQADAN
BgkqhkiG9w0BAQsFAAOCAQEAFOhtUfwOZggisk372npfTdGggPAY88XKxwVscFn6
1ZZo+scdfvtTO0qP7btRBOj729e4ltnijbtUzBFgyCDqgShf4evWjJS/QuB/oxMM
dgXy8DSYo+hkdEzLvzm7+tUtcgLR+lYVWRK3/6PMydYUykoeC7RHz1iw5STSIXEN
LQl3XC/vQPh0kAPMNy7qaiVZwL9IkABVnNu/H/B7tlqQlLaNfH27LRFfDPVKm8Xt
q+P9Nch2Oy5By992tfTpBXL2Vnr8NAfWolXrfFgzW50+sgOJAcbRVHUaXHM/Xi79
Ozjt1OH67P+E8FXug+DwE5fn8FWMAKMaMeQxnmjQbT6BsA==
-----END X509 CRL-----
