Certificate:
    Data:
        Version: 3 (0x2)
        Serial Number: 9 (0x9)
        Signature Algorithm: sha1WithRSAEncryption
        Issuer: C=US, ST=New York, L=New York City, O=10Gen, OU=Kernel, CN=My Cert Authority/emailAddress=root@lazarus
        Validity
            Not Before: Nov  6 14:45:13 2013 GMT
            Not After : Mar 23 14:45:13 2041 GMT
        Subject: C=US, ST=New York, L=New York City, O=10Gen, CN=santesthostname.com
        Subject Public Key Info:
            Public Key Algorithm: rsaEncryption
                Public-Key: (2048 bit)
                Modulus:
                    00:c9:83:7a:75:42:cf:35:a4:95:c7:c8:d8:4d:19:
                    0e:89:87:d5:bd:f9:2f:ee:20:2c:4c:ca:6d:0b:c1:
                    10:5b:06:1b:c4:a1:26:12:25:06:7a:1e:d1:e6:d0:
                    91:2b:a3:c8:74:de:95:10:d9:ff:20:03:ec:84:db:
                    49:d9:a4:e9:c2:93:f0:d2:32:01:a6:55:db:14:bf:
                    16:fe:88:e0:e4:46:0f:6a:bd:27:95:45:2e:8d:13:
                    e2:99:09:74:e4:2b:32:c3:6d:61:0c:86:85:eb:12:
                    f5:dc:9e:7b:d3:00:a3:ce:f4:8a:4b:51:7f:a2:c6:
                    0b:52:a4:f1:41:d5:01:53:88:99:b9:3b:29:f8:43:
                    5e:a4:c7:41:d9:d3:34:43:f2:c7:a6:8d:22:1c:f9:
                    b2:63:cb:df:83:9c:6f:ec:e3:b0:63:af:0b:51:c9:
                    20:ca:c2:59:c1:2c:ec:de:37:18:76:3d:73:85:82:
                    12:11:cd:b6:ef:2f:7b:64:cd:a3:2d:f6:7a:54:7f:
                    b3:4f:c9:38:f4:62:b6:da:00:f0:59:df:e1:d3:15:
                    ca:4b:73:6c:22:c1:9a:c1:51:c4:28:59:0f:71:2a:
                    39:e9:17:08:9d:b0:88:61:a7:53:67:da:dc:fb:6e:
                    38:f7:a8:cd:cd:88:ed:d9:4c:88:f4:a4:75:5e:3f:
                    8b:ff
                Exponent: 65537 (0x10001)
        X509v3 extensions:
            X509v3 Basic Constraints: 
                CA:FALSE
            Netscape Cert Type: 
                SSL Server
            Netscape Comment: 
                OpenSSL Certificate for SSL Server
            X509v3 Subject Alternative Name: 
                DNS:*.example.com, DNS:127.0.0.1, DNS:morefun!, IP Address:154.2.2.3, email:user@host.com
    Signature Algorithm: sha1WithRSAEncryption
        0b:82:c6:7d:e0:ba:71:24:d6:a8:f4:cb:6f:0f:f6:69:28:32:
        98:81:e6:14:49:81:07:ff:92:dd:0a:a4:68:3c:92:00:e5:8c:
        43:d1:29:04:4a:5e:f2:b1:db:d2:ca:5d:7d:fc:fe:7b:f5:01:
        65:87:25:cd:4c:68:09:16:bd:c7:b0:a4:d2:89:5e:dd:92:44:
        6c:6e:7a:fe:7e:05:e2:2b:56:96:96:16:44:4a:01:87:8f:0c:
        df:35:88:97:3e:e5:21:23:a2:af:87:ad:ee:f7:9e:05:36:f7:
        96:88:c8:fa:92:33:c2:60:2e:14:d9:ea:34:ab:04:a6:78:04:
        be:da
-----BEGIN CERTIFICATE-----
MIIDjDCCAvWgAwIBAgIBCTANBgkqhkiG9w0BAQUFADCBkjELMAkGA1UEBhMCVVMx
ETAPBgNVBAgMCE5ldyBZb3JrMRYwFAYDVQQHDA1OZXcgWW9yayBDaXR5MQ4wDAYD
VQQKDAUxMEdlbjEPMA0GA1UECwwGS2VybmVsMRowGAYDVQQDDBFNeSBDZXJ0IEF1
dGhvcml0eTEbMBkGCSqGSIb3DQEJARYMcm9vdEBsYXphcnVzMB4XDTEzMTEwNjE0
NDUxM1oXDTQxMDMyMzE0NDUxM1owZjELMAkGA1UEBhMCVVMxETAPBgNVBAgMCE5l
dyBZb3JrMRYwFAYDVQQHDA1OZXcgWW9yayBDaXR5MQ4wDAYDVQQKDAUxMEdlbjEc
MBoGA1UEAwwTc2FudGVzdGhvc3RuYW1lLmNvbTCCASIwDQYJKoZIhvcNAQEBBQAD
ggEPADCCAQoCggEBAMmDenVCzzWklcfI2E0ZDomH1b35L+4gLEzKbQvBEFsGG8Sh
JhIlBnoe0ebQkSujyHTelRDZ/yAD7ITbSdmk6cKT8NIyAaZV2xS/Fv6I4ORGD2q9
J5VFLo0T4pkJdOQrMsNtYQyGhesS9dyee9MAo870iktRf6LGC1Kk8UHVAVOImbk7
KfhDXqTHQdnTNEPyx6aNIhz5smPL34Ocb+zjsGOvC1HJIMrCWcEs7N43GHY9c4WC
EhHNtu8ve2TNoy32elR/s0/JOPRittoA8Fnf4dMVyktzbCLBmsFRxChZD3EqOekX
CJ2wiGGnU2fa3PtuOPeozc2I7dlMiPSkdV4/i/8CAwEAAaOBmDCBlTAJBgNVHRME
AjAAMBEGCWCGSAGG+EIBAQQEAwIGQDAxBglghkgBhvhCAQ0EJBYiT3BlblNTTCBD
ZXJ0aWZpY2F0ZSBmb3IgU1NMIFNlcnZlcjBCBgNVHREEOzA5gg0qLmV4YW1wbGUu
Y29tggkxMjcuMC4wLjGCCG1vcmVmdW4hhwSaAgIDgQ11c2VyQGhvc3QuY29tMA0G
CSqGSIb3DQEBBQUAA4GBAAuCxn3gunEk1qj0y28P9mkoMpiB5hRJgQf/kt0KpGg8
kgDljEPRKQRKXvKx29LKXX38/nv1AWWHJc1MaAkWvcewpNKJXt2SRGxuev5+BeIr
VpaWFkRKAYePDN81iJc+5SEjoq+Hre73ngU295aIyPqSM8JgLhTZ6jSrBKZ4BL7a
-----END CERTIFICATE-----
-----BEGIN PRIVATE KEY-----
MIIEvgIBADANBgkqhkiG9w0BAQEFAASCBKgwggSkAgEAAoIBAQDJg3p1Qs81pJXH
yNhNGQ6Jh9W9+S/uICxMym0LwRBbBhvEoSYSJQZ6HtHm0JEro8h03pUQ2f8gA+yE
20nZpOnCk/DSMgGmVdsUvxb+iODkRg9qvSeVRS6NE+KZCXTkKzLDbWEMhoXrEvXc
nnvTAKPO9IpLUX+ixgtSpPFB1QFTiJm5Oyn4Q16kx0HZ0zRD8semjSIc+bJjy9+D
nG/s47BjrwtRySDKwlnBLOzeNxh2PXOFghIRzbbvL3tkzaMt9npUf7NPyTj0Yrba
APBZ3+HTFcpLc2wiwZrBUcQoWQ9xKjnpFwidsIhhp1Nn2tz7bjj3qM3NiO3ZTIj0
pHVeP4v/AgMBAAECggEAbaQ12ttQ9rToMd2bosdBW58mssiERaIHuHhjQIP5LC10
qlWr6y9uCMAAIP/WHNJuXPhGTvbtkzPPWrIdymeqMI5h91vx/di07OLT1gYPpuRf
uwnUIamUnHn3TqEQkpzWb/JxXWlMMA0O7MzmPnYYqp/vJu/e7Geo/Xx1MAZ/RD0U
YUvrjAyHcor01VVa/eV69jL+6x9ExFNmRYRbmjmK/f10R4o86nIfqhXbM8qKsT6x
1U/S2I4oModm0x12PgiMDMDzVD+cNE/h8lSnFtBTNEY3xRe7CZnhMV4nBVGjWi9D
XjcIBA0kGd4G10ploiF+37J/PQbyodLA/Y30BIYCkQKBgQD6XvEzd4DbBa08pcCa
CYZd5pyAHur1GzJ4rTQNqB84hzuyG6dKkk0rPXjExrj/GAtGWg2ohggmC5OPInKM
WdpMC56Q0aZYMId3Be/Wg4kRgFO0YOsrx0dRVi5nwbRXkMjXbfewSopwbzP5hIo1
7rfOhdhbjXx6W269FPE4Epmj1QKBgQDOC1QjGeEzwEgSq3LuojRLHFo31pWYr7UU
sxhpoWMB6ImPMVjXaEsRKfc7Gulpee1KVQLVmzbkqrHArVNXEpuG4egRwZ10UJ0L
v4PqrElyHKxgAvllflkkMSX4rx791T+AZMq6W5VX1fKiojfvSLzmEFaI6VmS43GZ
KCz9RFbegwKBgHSE4vP01b8YsTrcWPpXHHVu8b6epPJVKfQHh4YjjAQey6VkQULv
O4K4JRBO+6GcawLeviSD3B74nD+s5Gp1Fqb1cWIsb6HzU9gMp0XKCWxfsJTt1gSV
xZcQ6J/ZAjkOZKn9v5wH1M3msuWYzUm0Q06V888H1bqL+sl8iZZy8ZXRAoGBALf6
GZh2BUYGTNSOzkMSBouCt3PgYRdC3PesqwG2nwcXMazwLRm6AD1FMYJPF1edDSow
GiXNQAiR+cHHggDflourr2IbdZJkYLYavZmPWM1RmQDp5vKfDM1qLTOOeqe//8GP
Pg2EtScG3G4nVraMRk9PC1WYtuiXudk9rF5A5SgtAoGBAL1oVSnQpi5tzBNJqhzM
mQIF7ct5WNj2b1lKqqsXUTd2pcgMCRrryatqH+gLz1rAjtbVfx2FAYkutH5TFgqP
c4uomUH3so1EjEA8GtFS9SSkLn5nIr4TnVy4+Qsr1svOo8mhtztORXz+xOTxR6ud
p7rd/YEbc5GhNSXlcW+apZW+
-----END PRIVATE KEY-----
