Certificate Revocation List (CRL):
        Version 2 (0x1)
    Signature Algorithm: sha256WithRSAEncryption
        Issuer: /CN=Kernel Test CA/OU=Kernel/O=MongoDB/L=New York City/ST=New York/C=US
        Last Update: Aug 21 13:43:27 2014 GMT
        Next Update: Aug 18 13:43:27 2024 GMT
        CRL extensions:
            X509v3 CRL Number: 
                4096
Revoked Certificates:
    Serial Number: 02
        Revocation Date: Aug 21 13:43:27 2014 GMT
    Signature Algorithm: sha256WithRSAEncryption
         24:86:73:8d:7f:55:15:d0:d6:8a:47:53:cf:97:f7:e5:3d:0b:
         4a:ea:fb:02:6a:2e:79:c6:b1:38:b2:ac:f0:c0:64:47:b0:3e:
         ad:4e:2e:94:e6:64:ed:79:34:bd:74:c0:d4:3d:b9:a1:bb:38:
         89:5c:02:6a:ad:6b:dc:3b:64:34:6a:2d:4c:90:36:82:95:0c:
         19:88:e2:a3:bf:8e:1b:56:98:37:32:87:ed:f0:bd:dd:e2:0d:
         f9:80:dc:f2:a5:b4:ee:d9:bb:83:fe:b8:3a:13:e0:da:fc:04:
         77:fb:ce:f9:c5:2a:54:a7:f0:34:09:2a:b2:3d:46:1b:48:e6:
         e8:16:c7:a1:3c:88:8c:72:cd:cc:53:dc:f8:54:63:1f:b9:8b:
         ea:2c:e5:26:c5:b4:a4:9f:8b:e1:6c:85:9b:c6:63:6f:2f:ae:
         18:c5:6a:23:f0:58:27:85:5c:0f:01:04:da:d2:8b:de:9e:ab:
         46:00:22:07:28:e1:ef:46:91:90:06:58:95:05:68:67:58:6e:
         67:a8:0b:06:1a:73:d9:04:18:c9:a3:e4:e3:d6:94:a3:e1:5c:
         e5:08:1b:b3:9d:ab:3e:ea:20:b1:04:e5:90:e1:42:54:b2:58:
         bb:51:1a:48:87:60:b0:95:4a:2e:ce:a0:4f:8c:17:6d:6b:4c:
         37:aa:4d:d7
-----BEGIN X509 CRL-----
MIIB5DCBzQIBATANBgkqhkiG9w0BAQsFADB0MRcwFQYDVQQDEw5LZXJuZWwgVGVz
dCBDQTEPMA0GA1UECxMGS2VybmVsMRAwDgYDVQQKEwdNb25nb0RCMRYwFAYDVQQH
Ew1OZXcgWW9yayBDaXR5MREwDwYDVQQIEwhOZXcgWW9yazELMAkGA1UEBhMCVVMX
DTE0MDgyMTEzNDMyN1oXDTI0MDgxODEzNDMyN1owFDASAgECFw0xNDA4MjExMzQz
MjdaoA8wDTALBgNVHRQEBAICEAAwDQYJKoZIhvcNAQELBQADggEBACSGc41/VRXQ
1opHU8+X9+U9C0rq+wJqLnnGsTiyrPDAZEewPq1OLpTmZO15NL10wNQ9uaG7OIlc
Amqta9w7ZDRqLUyQNoKVDBmI4qO/jhtWmDcyh+3wvd3iDfmA3PKltO7Zu4P+uDoT
4Nr8BHf7zvnFKlSn8DQJKrI9RhtI5ugWx6E8iIxyzcxT3PhUYx+5i+os5SbFtKSf
i+FshZvGY28vrhjFaiPwWCeFXA8BBNrSi96eq0YAIgco4e9GkZAGWJUFaGdYbmeo
CwYac9kEGMmj5OPWlKPhXOUIG7Odqz7qILEE5ZDhQlSyWLtRGkiHYLCVSi7OoE+M
F21rTDeqTdc=
-----END X509 CRL-----
