Certificate:
    Data:
        Version: 3 (0x2)
        Serial Number: 1 (0x1)
    Signature Algorithm: sha256WithRSAEncryption
        Issuer: C=US, ST=New York, L=New York City, O=MongoDB Kernel Tools, OU=Tools Testing CA, CN=localhost
        Validity
            Not Before: Jun  2 20:16:42 2014 GMT
            Not After : Jun  2 20:16:42 2015 GMT
        Subject: C=US, ST=New York, L=New York City, O=MongoDB Inc, OU=Kernel Tools, CN=localhost
        Subject Public Key Info:
            Public Key Algorithm: rsaEncryption
                Public-Key: (2048 bit)
                Modulus:
                    00:c9:ec:e6:a3:51:8a:02:a6:90:77:b8:6c:d8:b5:
                    7a:b0:43:0f:e9:64:7f:81:81:7d:0e:4d:46:81:bf:
                    0c:0a:c2:09:91:68:3e:c5:f9:32:48:cd:3d:3a:df:
                    be:62:e8:02:d6:72:a1:a6:28:64:15:df:ab:81:17:
                    71:2b:4b:01:1a:67:3f:2f:93:29:0c:4c:f7:8d:8b:
                    32:b2:60:17:96:85:d3:3a:fd:da:fb:ee:7f:4a:e2:
                    bb:a6:21:df:23:97:64:9a:31:11:8a:e0:99:83:db:
                    c4:02:10:8f:fa:8f:51:af:dd:4a:c5:60:26:3a:4e:
                    58:d6:f2:5e:4b:5b:cc:8e:e9:2e:84:20:d9:13:9e:
                    c6:64:07:48:10:25:c4:7d:31:22:95:7c:66:20:ad:
                    04:9b:5a:a2:aa:02:38:e9:68:b0:ae:f8:4c:a3:a1:
                    da:f4:32:9e:0b:d7:2c:c9:9c:ee:95:eb:29:b8:57:
                    e6:08:2e:c5:84:31:62:8a:2c:34:80:ad:45:02:0f:
                    0f:7e:1c:29:3d:50:93:45:29:3e:1e:cf:59:13:6b:
                    61:bf:c0:04:9b:58:cf:61:a9:02:6f:e2:c8:42:10:
                    2c:28:c0:15:52:91:22:e7:16:6f:2c:9f:aa:4b:b8:
                    f9:cb:93:7f:fa:d5:7d:de:3b:06:81:8b:67:43:04:
                    78:c7
                Exponent: 65537 (0x10001)
        X509v3 extensions:
            X509v3 Basic Constraints: 
                CA:FALSE
            Netscape Comment: 
                OpenSSL Generated Certificate
            X509v3 Subject Key Identifier: 
                7C:05:FF:29:0F:A1:82:B6:54:6D:4C:A3:E5:5D:AD:11:73:CE:EA:CE
            X509v3 Authority Key Identifier: 
                keyid:AD:84:FF:69:FB:D6:16:B0:A3:8A:49:BB:AB:15:30:7E:7A:08:74:4D

    Signature Algorithm: sha256WithRSAEncryption
         97:51:00:2c:a8:31:98:bc:08:75:a0:96:b6:cd:2e:3b:d3:45:
         c2:b0:1d:96:0a:f6:6d:26:dc:61:29:d2:3d:f5:8d:47:10:8c:
         69:aa:50:b4:45:88:79:f1:69:59:7e:7f:3c:2a:b3:10:b7:e6:
         9b:8a:7f:17:6d:d2:01:51:77:d3:44:c0:99:3b:bd:1b:c4:7a:
         60:6b:13:d7:e0:e5:ba:d5:c9:f8:11:3c:57:38:0d:cb:e6:1f:
         e5:4f:89:c2:78:84:06:bb:bc:d4:76:d9:a2:e8:f9:56:ed:a0:
         8b:93:95:1a:d8:aa:cb:8e:d6:9b:81:71:1c:3c:9a:be:40:e3:
         17:95:2d:92:95:80:cc:92:69:46:da:d8:24:c8:83:33:a5:25:
         af:db:40:b5:f4:82:4d:ed:f3:59:b1:d9:ca:34:d5:35:cd:89:
         d7:3b:7f:ed:5c:84:69:3d:9f:b7:b6:88:a6:cb:5c:ef:60:34:
         8f:b7:63:ee:d6:cf:e1:12:cb:a3:a9:09:bb:49:79:15:4f:00:
         58:a3:c7:f7:0b:a8:04:43:cc:97:9f:12:1f:2d:6b:f3:bd:9c:
         e3:56:b0:0e:c5:74:66:61:dd:9e:f4:68:9a:82:16:0e:87:b9:
         06:6c:fb:8c:14:a0:7c:4b:f9:f8:93:fc:fe:f6:f3:39:be:a1:
         3b:d7:15:d6
-----BEGIN CERTIFICATE-----
MIID9jCCAt6gAwIBAgIBATANBgkqhkiG9w0BAQsFADCBhjELMAkGA1UEBhMCVVMx
ETAPBgNVBAgMCE5ldyBZb3JrMRYwFAYDVQQHDA1OZXcgWW9yayBDaXR5MR0wGwYD
VQQKDBRNb25nb0RCIEtlcm5lbCBUb29sczEZMBcGA1UECwwQVG9vbHMgVGVzdGlu
ZyBDQTESMBAGA1UEAwwJbG9jYWxob3N0MB4XDTE0MDYwMjIwMTY0MloXDTE1MDYw
MjIwMTY0MloweTELMAkGA1UEBhMCVVMxETAPBgNVBAgMCE5ldyBZb3JrMRYwFAYD
VQQHDA1OZXcgWW9yayBDaXR5MRQwEgYDVQQKDAtNb25nb0RCIEluYzEVMBMGA1UE
CwwMS2VybmVsIFRvb2xzMRIwEAYDVQQDDAlsb2NhbGhvc3QwggEiMA0GCSqGSIb3
DQEBAQUAA4IBDwAwggEKAoIBAQDJ7OajUYoCppB3uGzYtXqwQw/pZH+BgX0OTUaB
vwwKwgmRaD7F+TJIzT06375i6ALWcqGmKGQV36uBF3ErSwEaZz8vkykMTPeNizKy
YBeWhdM6/dr77n9K4rumId8jl2SaMRGK4JmD28QCEI/6j1Gv3UrFYCY6TljW8l5L
W8yO6S6EINkTnsZkB0gQJcR9MSKVfGYgrQSbWqKqAjjpaLCu+Eyjodr0Mp4L1yzJ
nO6V6ym4V+YILsWEMWKKLDSArUUCDw9+HCk9UJNFKT4ez1kTa2G/wASbWM9hqQJv
4shCECwowBVSkSLnFm8sn6pLuPnLk3/61X3eOwaBi2dDBHjHAgMBAAGjezB5MAkG
A1UdEwQCMAAwLAYJYIZIAYb4QgENBB8WHU9wZW5TU0wgR2VuZXJhdGVkIENlcnRp
ZmljYXRlMB0GA1UdDgQWBBR8Bf8pD6GCtlRtTKPlXa0Rc87qzjAfBgNVHSMEGDAW
gBSthP9p+9YWsKOKSburFTB+egh0TTANBgkqhkiG9w0BAQsFAAOCAQEAl1EALKgx
mLwIdaCWts0uO9NFwrAdlgr2bSbcYSnSPfWNRxCMaapQtEWIefFpWX5/PCqzELfm
m4p/F23SAVF300TAmTu9G8R6YGsT1+DlutXJ+BE8VzgNy+Yf5U+JwniEBru81HbZ
ouj5Vu2gi5OVGtiqy47Wm4FxHDyavkDjF5UtkpWAzJJpRtrYJMiDM6Ulr9tAtfSC
Te3zWbHZyjTVNc2J1zt/7VyEaT2ft7aIpstc72A0j7dj7tbP4RLLo6kJu0l5FU8A
WKPH9wuoBEPMl58SHy1r872c41awDsV0ZmHdnvRomoIWDoe5Bmz7jBSgfEv5+JP8
/vbzOb6hO9cV1g==
-----END CERTIFICATE-----
-----BEGIN PRIVATE KEY-----
MIIEwAIBADANBgkqhkiG9w0BAQEFAASCBKowggSmAgEAAoIBAQDJ7OajUYoCppB3
uGzYtXqwQw/pZH+BgX0OTUaBvwwKwgmRaD7F+TJIzT06375i6ALWcqGmKGQV36uB
F3ErSwEaZz8vkykMTPeNizKyYBeWhdM6/dr77n9K4rumId8jl2SaMRGK4JmD28QC
EI/6j1Gv3UrFYCY6TljW8l5LW8yO6S6EINkTnsZkB0gQJcR9MSKVfGYgrQSbWqKq
AjjpaLCu+Eyjodr0Mp4L1yzJnO6V6ym4V+YILsWEMWKKLDSArUUCDw9+HCk9UJNF
KT4ez1kTa2G/wASbWM9hqQJv4shCECwowBVSkSLnFm8sn6pLuPnLk3/61X3eOwaB
i2dDBHjHAgMBAAECggEBALv30o8vpUhoY01/GZv1/Bq+or5BtkwJDS/WEY9QF9af
4CZCo0TJf9yzaY83ntQVZCbamM3DBcAy8UT/XHLPpFw+xlv0Ip73uu5BKNVRjEOr
mgFtNH+W+VntjH7PQxevo4/Bo7Hi+CT93A2L+2tkJMeQOT1ZDtzx99NH1S1TbC2P
DJwVrSA5oWSKbIH3bjd7xtlaBrWAV9Rplt8qKarBa8BP7EcN5KF1nDkwr3OSkt6B
RmPqlFDk8AW0euq3x8UZ1JL0Uhdr4/Ys+A4rP7gPLlnwjsA/ownenYZhAgxdsyU8
vqE82EC4boh1TPTQ/DFtdehvZZIY1sEFQXs6VABtISECgYEA+OvHU+DwHN/Z1Ume
SFEnsmzv9zOFOUQdq7XeVAiVV4+graPWpjPj+yjTh75adISU28XCh0dtR/AxFchr
ObraZlx4SVYqDCatF8a4nzpt+6HOnvYELSslc5Mvkab6Rf91tuvmZuqIR6qlj1Ta
7t1nts4cHSf1hIdZSD3u6r7z8pcCgYEAz6r607skDKS0Dy877C6/ZwfxviyizS4E
R9mNfSsi7GpvcvWyaFjAWOl/cIGH1Jazj+ljv6V2YNGP5ZD4OJV3yZlyC06UovcJ
eajZnG6Lz/zwwzRKm+iGacNk4aML738371xmXMMQoHORT0ClNb/kzvbqLJTAhhca
ZhP+PscS4VECgYEA9kzec4m8LOX2dgwdGTNsEymlm7WX2h0jOrd/ISlJFFXiyE24
Y8YujGNOQx/AA1D4timNHSw43pi1CPfB2WKhHe3be71NZ66RUVhpb+xxzS3C9Bk7
8rGhoiV+SSGuvLpUcMYkuarRZBBfN17gLsBXElQJD3RthFAksM3PbOm7GksCgYEA
xp44YjN1yiXpFTDO9hjL9aXyfzo/x1AAxht8KMAOGeG+kEwQA58G8ML6oUcx+5Db
UoQdZBnD+9vS7fTWg3/pXsbE/a19mdP+mv50ixpr3FSGjZzA0xb1H8jC/s+rxbd+
bw+H06a5i0ydKRiiKqNLGuurk1H+RQFpvUHYBIDwPNECgYEA4Vt6fSJoPov4CMiI
zqnhoRrEiEoqzJjqqgs0CGGwQr45mA/5Bned8Mw5pQYlIvcaxtJK5NwRbNDSQWQI
++f9v/4qbJXWrUy+nK6pTzLG0PAgbs0jP7+c1jikqGEl5v3Bn/sjMMK1LrbBHzMF
ac6IeF/kuaIQW7sEPMXISIWySEw=
-----END PRIVATE KEY-----
